"File: TESTER_REMOTE_CONTROLLER.c  Assembler  Version HGASM0202      Page 1


   1  0000              ; Generated by holtek-gcc v3.19, Mon Aug 14 12:16:35 2023
   2  0000              ; 
   3  0000              ; Configuration:
   4  0000              ;       with long instruction
   5  0000              ;       Single ROM, Multi-RAM
   6  0000              ;       bits_per_rom_unit:16
   7  0000              ;       with mp1
   8  0000              ;       with tbhp, address(0x9)
   9  0000              ;          Use tabrd-const
  10  0000              ;       
  11  0000              ; SFR address of long-instruction arch:
  12  0000              ;    mp0 = -1,1,0
  13  0000              ;    mp1 = 4,3,2
  14  0000              ;    mp2 = 14,13,12
  15  0000              ;    tbp = 9,7,8
  16  0000              ;    acc = 5
  17  0000              ;    pcl = 6
  18  0000              ;    status = 10
  19  0000              ;    bp = 11
  20  0000              ;    intc = 16
  21  0000              ;       
  22  0000              ;       
  23  0000              ; use 'tabrdc' instead of 'tabrd'
  24  0000              ;       
  25  0000              
  26  0000              #pragma translator "holtek-gcc 4.6.4" "3.19" "build 20130711"
  27  0000              ; Rebuild 718
  28  0000              
  29  0000              ir equ [2]
  30  0000              mp equ [3]
  31  0000              sbp equ [4]
  32  0000              acc equ [5]
  33  0000              bp equ [11]
  34  0000              tblp equ [7]
  35  0000              tbhp equ [9]
  36  0000              status equ [10]
  37  0000              c equ [10].0
  38  0000              ac equ [10].1
  39  0000              z equ [10].2
  40  0000              ov equ [10].3
  41  0000              cz equ [10].6
  42  0000              sc equ [10].7
  43  0000              intc equ [16]
  44  0000              
  45  0000              extern ra:byte
  46  0000              extern rb:byte
  47  0000              extern rc:byte
  48  0000              extern rd:byte
  49  0000              extern re:byte
  50  0000              extern rf:byte
  51  0000              extern rg:byte
  52  0000              extern rh:byte
  53  0000              extern _Crom2Prom:near
  54  0000              extern _Crom2PromNext:near
  55  0000              
  56  0000              RAMBANK 0 @BITDATASEC, @BITDATASEC1
  57  0000              @HCCINIT	.section 'data'
  58  0000              @HCCINIT0	.section 'data'
  59  0000              @BITDATASEC	 .section 'data'
"File: TESTER_REMOTE_CONTROLLER.ASM  Assembler  Version HGASM0202      Page 2

  60  0000              @BITDATASEC1	 .section 'data'
  61  0000              
  62  0000              #pragma debug scope 1 1
  63  0000              	extern __DELAY3:near
  64  0000              	extern __DELAYX3:near
  65  0000              	extern __DELAYX6:near
  66  0000              	extern __DELAYY5:near
  67  0000              	extern __DELAYY3:near
  68  0000              	extern _builtin_holtek_delay_2:byte
  69  0000              ___mfi0 equ [42]
  70  0000              ___pb equ [24]
  71  0000              ___ctm0c0 equ [58]
  72  0000              public _TIMER0_INT_FUN
  73  0000              #pragma debug scope 2 1

 187  0000              #line 187 "e:\projects\5_tester_remote_controller\code\v1\tester_remote_controller\TESTER_REMOTE_CONTROLLER.c"
 187  0000              @TIMER0_INT_FUN_code .section at 20 'code'
 187  0000              ifdef INTERRUPT_DELAY
 187  0000              	nop
 187  0000              endif
 187  0000  0080     E  	mov r1,a
 187  0001  070A        	mov a,status
 187  0002              ifndef INTERRUPT_DELAY
 187  0002  0080     E  	mov r2,a
 187  0003              endif
 187  0003  2800     R  	jmp _TIMER0_INT_FUN
 187  0004              #pragma debug scope 1 1
 187  0004              @dummy20 endp
 187  0004              #pragma debug scope 3 1
 187  0000              _TIMER0_INT_FUN .section 'code'
 187  0000              _TIMER0_INT_FUN proc
 187  0000              ifdef INTERRUPT_DELAY
 187  0000              	mov r2,a
 187  0000              endif
 187  0000  0703        	mov a,mp
 187  0001  0080     E  	mov r3,a
 187  0002  0704        	mov a,sbp
 187  0003  0080     E  	mov r4,a
 189  0004              #line 189 "e:\projects\5_tester_remote_controller\code\v1\tester_remote_controller\TESTER_REMOTE_CONTROLLER.c"
 189  0004  36AA        	clr [42].5
 191  0005              #line 191 "e:\projects\5_tester_remote_controller\code\v1\tester_remote_controller\TESTER_REMOTE_CONTROLLER.c"
 191  0005  0F77        	mov a,119
 191  0006  0200     R  	sub a,_rCountTask[0]
 191  0007  0F00        	mov a,0
 191  0008  1200     R  	sbc a,_rCountTask[1]
 191  0009  380A        	snz c
 191  000A  2800     R  	jmp _L2
 191  000B              #line 191 "e:\projects\5_tester_remote_controller\code\v1\tester_remote_controller\TESTER_REMOTE_CONTROLLER.c"
 191  000B  3C00     R  	sz _rTaskflag[0].6
 191  000C  2800     R  	jmp _L2
 191  000D  3C18        	sz [24].0
 191  000E  2800     R  	jmp _L2
 192  000F              #line 192 "e:\projects\5_tester_remote_controller\code\v1\tester_remote_controller\TESTER_REMOTE_CONTROLLER.c"
 192  000F  3000     R  	set _rTaskflag[0].3
 193  0010              #line 193 "e:\projects\5_tester_remote_controller\code\v1\tester_remote_controller\TESTER_REMOTE_CONTROLLER.c"
 193  0010  3000     R  	set _rTaskflag[0].6
 193  0011              _L2:
 196  0011              #line 196 "e:\projects\5_tester_remote_controller\code\v1\tester_remote_controller\TESTER_REMOTE_CONTROLLER.c"
 196  0011  3800     R  	snz _rTaskflag[0].3
 196  0012  2800     R  	jmp _L3
"File: TESTER_REMOTE_CONTROLLER.c  Assembler  Version HGASM0202      Page 3

 198  0013              #line 198 "e:\projects\5_tester_remote_controller\code\v1\tester_remote_controller\TESTER_REMOTE_CONTROLLER.c"
 198  0013  0F2F        	mov a,47
 198  0014  0200     R  	sub a,_receiveBitCount[0]
 198  0015  380A        	snz c
 198  0016  2800     R  	jmp _L4
 199  0017              #line 199 "e:\projects\5_tester_remote_controller\code\v1\tester_remote_controller\TESTER_REMOTE_CONTROLLER.c"
 199  0017  1480     R  	inc _receiveBitCount[0]
 199  0018  2800     R  	jmp _L5
 199  0019              _L4:
 202  0019              #line 202 "e:\projects\5_tester_remote_controller\code\v1\tester_remote_controller\TESTER_REMOTE_CONTROLLER.c"
 202  0019  1F00     R  	clr _receiveBitCount[0]
 203  001A              #line 203 "e:\projects\5_tester_remote_controller\code\v1\tester_remote_controller\TESTER_REMOTE_CONTROLLER.c"
 203  001A  3400     R  	clr _rTaskflag[0].3
 203  001B              _L5:
 205  001B              #line 205 "e:\projects\5_tester_remote_controller\code\v1\tester_remote_controller\TESTER_REMOTE_CONTROLLER.c"
 205  001B  3898        	snz [24].1
 205  001C  2800     R  	jmp _L6
 206  001D              #line 206 "e:\projects\5_tester_remote_controller\code\v1\tester_remote_controller\TESTER_REMOTE_CONTROLLER.c"
 206  001D  3818        	snz [24].0
 206  001E  2800     R  	jmp _L7
 207  001F              #line 207 "e:\projects\5_tester_remote_controller\code\v1\tester_remote_controller\TESTER_REMOTE_CONTROLLER.c"
 207  001F  0700     R  	mov a,_receiveDataShifter[0]
 207  0020  0080     E  	mov rb,a
 207  0021  1F00     E  	clr rc
 207  0022  340A        	clr c
 207  0023  1A80     E  	rlc rb
 207  0024  1A80     E  	rlc rc
 207  0025  0F00     R  	mov a,low offset _receiveDataBit
 207  0026  0300     E  	add a,rb
 207  0027  0083        	mov mp,a
 207  0028  0F00     R  	mov a,high offset _receiveDataBit
 207  0029  1300     E  	adc a,rc
 207  002A  0084        	mov sbp,a
 207  002B  0F01        	mov a,1
 207  002C  0082        	mov ir,a
 207  002D  1483        	inc mp
 207  002E  0F00        	mov a,0
 207  002F  0082        	mov ir,a
 207  0030  2800     R  	jmp _L8
 207  0031              _L7:
 210  0031              #line 210 "e:\projects\5_tester_remote_controller\code\v1\tester_remote_controller\TESTER_REMOTE_CONTROLLER.c"
 210  0031  0700     R  	mov a,_receiveDataShifter[0]
 210  0032  0080     E  	mov rb,a
 210  0033  1F00     E  	clr rc
 210  0034  340A        	clr c
 210  0035  1A80     E  	rlc rb
 210  0036  1A80     E  	rlc rc
 210  0037  0F00     R  	mov a,low offset _receiveDataBit
 210  0038  0300     E  	add a,rb
 210  0039  0083        	mov mp,a
 210  003A  0F00     R  	mov a,high offset _receiveDataBit
 210  003B  1300     E  	adc a,rc
 210  003C  0084        	mov sbp,a
 210  003D  1F02        	clr ir
 210  003E  1483        	inc mp
 210  003F  1F02        	clr ir
 210  0040              _L8:
 212  0040              #line 212 "e:\projects\5_tester_remote_controller\code\v1\tester_remote_controller\TESTER_REMOTE_CONTROLLER.c"
 212  0040  1580     R  	dec _receiveDataShifter[0]
 212  0041              _L6:
"File: TESTER_REMOTE_CONTROLLER.c  Assembler  Version HGASM0202      Page 4

 214  0041              #line 214 "e:\projects\5_tester_remote_controller\code\v1\tester_remote_controller\TESTER_REMOTE_CONTROLLER.c"
 214  0041  1918        	rra [24]
 214  0042  0E7F        	and a,07fh
 214  0043  0080     E  	mov ra,a
 214  0044  0F01        	mov a,1
 214  0045  0480     E  	xorm a,ra
 214  0046  0F01        	mov a,1
 214  0047  0680     E  	andm a,ra
 214  0048  0700     E  	mov a,ra
 214  0049  0380     E  	addm a,ra
 214  004A  3498        	clr [24].1
 214  004B  0700     E  	mov a,ra
 214  004C  0598        	orm a,[24]
 214  004D  2800     R  	jmp _L1
 214  004E              _L3:
 217  004E              #line 217 "e:\projects\5_tester_remote_controller\code\v1\tester_remote_controller\TESTER_REMOTE_CONTROLLER.c"
 217  004E  3498        	clr [24].1
 218  004F              #line 218 "e:\projects\5_tester_remote_controller\code\v1\tester_remote_controller\TESTER_REMOTE_CONTROLLER.c"
 218  004F  0F17        	mov a,23
 218  0050  0080     R  	mov _receiveDataShifter[0],a
 219  0051              #line 219 "e:\projects\5_tester_remote_controller\code\v1\tester_remote_controller\TESTER_REMOTE_CONTROLLER.c"
 219  0051  35BA        	clr [58].3
 219  0052              _L1:
 219  0052  0700     E  	mov a,r2
 219  0053  008A        	mov status,a
 219  0054  0700     E  	mov a,r3
 219  0055  0083        	mov mp,a
 219  0056  0700     E  	mov a,r4
 219  0057  0084        	mov sbp,a
 219  0058  0700     E  	mov a,r1
 219  0059  0004        	reti
 219  005A              _TIMER0_INT_FUN endp
 219  005A              
 219  005A              #line 219 "e:\projects\5_tester_remote_controller\code\v1\tester_remote_controller\TESTER_REMOTE_CONTROLLER.c"
 219  005A              #pragma debug scope 1 1
 219  005A              ___mfi1 equ [43]
 219  005A              public _TIMER1_INT_FUN
 219  005A              #pragma debug scope 4 1
 227  005A              #line 227 "e:\projects\5_tester_remote_controller\code\v1\tester_remote_controller\TESTER_REMOTE_CONTROLLER.c"
 227  0000              @TIMER1_INT_FUN_code .section at 24 'code'
 227  0000              ifdef INTERRUPT_DELAY
 227  0000              	nop
 227  0000              endif
 227  0000  0080     E  	mov r1,a
 227  0001  070A        	mov a,status
 227  0002              ifndef INTERRUPT_DELAY
 227  0002  0080     E  	mov r2,a
 227  0003              endif
 227  0003  2800     R  	jmp _TIMER1_INT_FUN
 227  0004              #pragma debug scope 1 1
 227  0004              @dummy24 endp
 227  0004              #pragma debug scope 5 1
 227  0000              _TIMER1_INT_FUN .section 'code'
 227  0000              _TIMER1_INT_FUN proc
 227  0000              ifdef INTERRUPT_DELAY
 227  0000              	mov r2,a
 227  0000              endif
 229  0000              #line 229 "e:\projects\5_tester_remote_controller\code\v1\tester_remote_controller\TESTER_REMOTE_CONTROLLER.c"
 229  0000  36AB        	clr [43].5
 231  0001              #line 231 "e:\projects\5_tester_remote_controller\code\v1\tester_remote_controller\TESTER_REMOTE_CONTROLLER.c"
"File: TESTER_REMOTE_CONTROLLER.c  Assembler  Version HGASM0202      Page 5

 231  0001  3400     R  	clr _rTaskflag[0].1
 232  0002              #line 232 "e:\projects\5_tester_remote_controller\code\v1\tester_remote_controller\TESTER_REMOTE_CONTROLLER.c"
 232  0002  3000     R  	set _rTaskflag[0].0
 232  0003  0700     E  	mov a,r2
 232  0004  008A        	mov status,a
 232  0005  0700     E  	mov a,r1
 232  0006  0004        	reti
 232  0007              _TIMER1_INT_FUN endp
 232  0007              
 232  0007              #line 232 "e:\projects\5_tester_remote_controller\code\v1\tester_remote_controller\TESTER_REMOTE_CONTROLLER.c"
 232  0007              #pragma debug scope 1 1
 232  0007              ___scc equ [28]
 232  0007              ___hircc equ [29]
 232  0007              ___wdtc equ [34]
 232  0007              ___ctm0c1 equ [59]
 232  0007              ___ctm0al equ [62]
 232  0007              ___ctm0ah equ [63]
 232  0007              ___ctm1c0 equ [100]
 232  0007              ___ctm1c1 equ [101]
 232  0007              ___ctm1al equ [104]
 232  0007              ___ctm1ah equ [105]
 232  0007              ___intc1 equ [17]
 232  0007              ___pac equ [21]
 232  0007              ___pa equ [20]
 232  0007              ___pbc equ [25]
 232  0007              ___pcc equ [37]
 232  0007              ___pc equ [36]
 232  0007              ___pec equ [113]
 232  0007              ___pe equ [112]
 232  0007              public _initializeHardware
 232  0007              #pragma debug scope 6 1
 239  0007              #line 239 "e:\projects\5_tester_remote_controller\code\v1\tester_remote_controller\TESTER_REMOTE_CONTROLLER.c"
 239  0000              _initializeHardware .section 'code'
 239  0000              _initializeHardware proc
 241  0000              #line 241 "e:\projects\5_tester_remote_controller\code\v1\tester_remote_controller\TESTER_REMOTE_CONTROLLER.c"
 241  0000  1F1C        	clr [28]
 242  0001              #line 242 "e:\projects\5_tester_remote_controller\code\v1\tester_remote_controller\TESTER_REMOTE_CONTROLLER.c"
 242  0001  0F01        	mov a,1
 242  0002  009D        	mov [29],a
 245  0003              #line 245 "e:\projects\5_tester_remote_controller\code\v1\tester_remote_controller\TESTER_REMOTE_CONTROLLER.c"
 245  0003  0FAD        	mov a,173
 245  0004  00A2        	mov [34],a
 248  0005              #line 248 "e:\projects\5_tester_remote_controller\code\v1\tester_remote_controller\TESTER_REMOTE_CONTROLLER.c"
 248  0005  0F20        	mov a,32
 248  0006  00BA        	mov [58],a
 249  0007              #line 249 "e:\projects\5_tester_remote_controller\code\v1\tester_remote_controller\TESTER_REMOTE_CONTROLLER.c"
 249  0007  0FC1        	mov a,193
 249  0008  00BB        	mov [59],a
 251  0009              #line 251 "e:\projects\5_tester_remote_controller\code\v1\tester_remote_controller\TESTER_REMOTE_CONTROLLER.c"
 251  0009  0F0F        	mov a,15
 251  000A  00BE        	mov [62],a
 252  000B              #line 252 "e:\projects\5_tester_remote_controller\code\v1\tester_remote_controller\TESTER_REMOTE_CONTROLLER.c"
 252  000B  1F3F        	clr [63]
 255  000C              #line 255 "e:\projects\5_tester_remote_controller\code\v1\tester_remote_controller\TESTER_REMOTE_CONTROLLER.c"
 255  000C  0F38        	mov a,56
 255  000D  00E4        	mov [100],a
 256  000E              #line 256 "e:\projects\5_tester_remote_controller\code\v1\tester_remote_controller\TESTER_REMOTE_CONTROLLER.c"
 256  000E  0FC1        	mov a,193
 256  000F  00E5        	mov [101],a
 258  0010              #line 258 "e:\projects\5_tester_remote_controller\code\v1\tester_remote_controller\TESTER_REMOTE_CONTROLLER.c"
"File: TESTER_REMOTE_CONTROLLER.c  Assembler  Version HGASM0202      Page 6

 258  0010  0F71        	mov a,113
 258  0011  00E8        	mov [104],a
 259  0012              #line 259 "e:\projects\5_tester_remote_controller\code\v1\tester_remote_controller\TESTER_REMOTE_CONTROLLER.c"
 259  0012  0F02        	mov a,2
 259  0013  00E9        	mov [105],a
 262  0014              #line 262 "e:\projects\5_tester_remote_controller\code\v1\tester_remote_controller\TESTER_REMOTE_CONTROLLER.c"
 262  0014  0F02        	mov a,2
 262  0015  00AA        	mov [42],a
 263  0016              #line 263 "e:\projects\5_tester_remote_controller\code\v1\tester_remote_controller\TESTER_REMOTE_CONTROLLER.c"
 263  0016  0F06        	mov a,6
 263  0017  0091        	mov [17],a
 265  0018              #line 265 "e:\projects\5_tester_remote_controller\code\v1\tester_remote_controller\TESTER_REMOTE_CONTROLLER.c"
 265  0018  0F02        	mov a,2
 265  0019  00AB        	mov [43],a
 270  001A              #line 270 "e:\projects\5_tester_remote_controller\code\v1\tester_remote_controller\TESTER_REMOTE_CONTROLLER.c"
 270  001A  1F15        	clr [21]
 271  001B              #line 271 "e:\projects\5_tester_remote_controller\code\v1\tester_remote_controller\TESTER_REMOTE_CONTROLLER.c"
 271  001B  1F14        	clr [20]
 274  001C              #line 274 "e:\projects\5_tester_remote_controller\code\v1\tester_remote_controller\TESTER_REMOTE_CONTROLLER.c"
 274  001C  0FCD        	mov a,205
 274  001D  0099        	mov [25],a
 275  001E              #line 275 "e:\projects\5_tester_remote_controller\code\v1\tester_remote_controller\TESTER_REMOTE_CONTROLLER.c"
 275  001E  1F18        	clr [24]
 278  001F              #line 278 "e:\projects\5_tester_remote_controller\code\v1\tester_remote_controller\TESTER_REMOTE_CONTROLLER.c"
 278  001F  1F25        	clr [37]
 279  0020              #line 279 "e:\projects\5_tester_remote_controller\code\v1\tester_remote_controller\TESTER_REMOTE_CONTROLLER.c"
 279  0020  0F0F        	mov a,15
 279  0021  00A4        	mov [36],a
 282  0022              #line 282 "e:\projects\5_tester_remote_controller\code\v1\tester_remote_controller\TESTER_REMOTE_CONTROLLER.c"
 282  0022  1F71        	clr [113]
 283  0023              #line 283 "e:\projects\5_tester_remote_controller\code\v1\tester_remote_controller\TESTER_REMOTE_CONTROLLER.c"
 283  0023  1F70        	clr [112]
 283  0024  0003        	ret
 283  0025              _initializeHardware endp
 283  0025              #line 283 "e:\projects\5_tester_remote_controller\code\v1\tester_remote_controller\TESTER_REMOTE_CONTROLLER.c"
 283  0025              #pragma debug scope 1 1
 283  0025              public _initializeSoftware
 283  0025              #pragma debug scope 7 1
 289  0025              #line 289 "e:\projects\5_tester_remote_controller\code\v1\tester_remote_controller\TESTER_REMOTE_CONTROLLER.c"
 289  0000              _initializeSoftware .section 'code'
 289  0000              _initializeSoftware proc
 290  0000              #line 290 "e:\projects\5_tester_remote_controller\code\v1\tester_remote_controller\TESTER_REMOTE_CONTROLLER.c"
 290  0000  1F00     R  	clr _rCountTask[0]
 290  0001  1F00     R  	clr _rCountTask[1]
 291  0002              #line 291 "e:\projects\5_tester_remote_controller\code\v1\tester_remote_controller\TESTER_REMOTE_CONTROLLER.c"
 291  0002  1F00     R  	clr _rSegmentDispla[0]
 292  0003              #line 292 "e:\projects\5_tester_remote_controller\code\v1\tester_remote_controller\TESTER_REMOTE_CONTROLLER.c"
 292  0003  1F00     R  	clr _segCountBit[0]
 293  0004              #line 293 "e:\projects\5_tester_remote_controller\code\v1\tester_remote_controller\TESTER_REMOTE_CONTROLLER.c"
 293  0004  1F00     R  	clr _segDisplaynum[0]
 293  0005  1F00     R  	clr _segDisplaynum[1]
 294  0006              #line 294 "e:\projects\5_tester_remote_controller\code\v1\tester_remote_controller\TESTER_REMOTE_CONTROLLER.c"
 294  0006  1F00     R  	clr _segDisplaynumFin[0]
 295  0007              #line 295 "e:\projects\5_tester_remote_controller\code\v1\tester_remote_controller\TESTER_REMOTE_CONTROLLER.c"
 295  0007  1F00     R  	clr _receiveBitCount[0]
 296  0008              #line 296 "e:\projects\5_tester_remote_controller\code\v1\tester_remote_controller\TESTER_REMOTE_CONTROLLER.c"
 296  0008  1F00     R  	clr _receiveData[0]
 296  0009  1F00     R  	clr _receiveData[1]
 296  000A  1F00     R  	clr _receiveData[2]
 296  000B  1F00     R  	clr _receiveData[3]
"File: TESTER_REMOTE_CONTROLLER.c  Assembler  Version HGASM0202      Page 7

 297  000C              #line 297 "e:\projects\5_tester_remote_controller\code\v1\tester_remote_controller\TESTER_REMOTE_CONTROLLER.c"
 297  000C  1F00     R  	clr _shiftData[0]
 297  000D  1F00     R  	clr _shiftData[1]
 297  000E  1F00     R  	clr _shiftData[2]
 297  000F  1F00     R  	clr _shiftData[3]
 298  0010              #line 298 "e:\projects\5_tester_remote_controller\code\v1\tester_remote_controller\TESTER_REMOTE_CONTROLLER.c"
 298  0010  0F17        	mov a,23
 298  0011  0080     R  	mov _receiveDataShifter[0],a
 299  0012              #line 299 "e:\projects\5_tester_remote_controller\code\v1\tester_remote_controller\TESTER_REMOTE_CONTROLLER.c"
 299  0012  0F54        	mov a,84
 299  0013  0080     R  	mov _testSampleSegmentDisplay[0],a
 299  0014  0F09        	mov a,9
 299  0015  0080     R  	mov _testSampleSegmentDisplay[1],a
 300  0016              #line 300 "e:\projects\5_tester_remote_controller\code\v1\tester_remote_controller\TESTER_REMOTE_CONTROLLER.c"
 300  0016  0F4A        	mov a,74
 300  0017  0080     R  	mov _SegmentDisplayNumber[0],a
 300  0018  0F0E        	mov a,14
 300  0019  0080     R  	mov _SegmentDisplayNumber[1],a
 301  001A              #line 301 "e:\projects\5_tester_remote_controller\code\v1\tester_remote_controller\TESTER_REMOTE_CONTROLLER.c"
 301  001A  1F00     R  	clr _stateStepperUp[0]
 302  001B              #line 302 "e:\projects\5_tester_remote_controller\code\v1\tester_remote_controller\TESTER_REMOTE_CONTROLLER.c"
 302  001B  1F00     R  	clr _stateStepperDown[0]
 303  001C              #line 303 "e:\projects\5_tester_remote_controller\code\v1\tester_remote_controller\TESTER_REMOTE_CONTROLLER.c"
 303  001C  0F0B        	mov a,11
 303  001D  0080     R  	mov _k[0],a
 305  001E              #line 305 "e:\projects\5_tester_remote_controller\code\v1\tester_remote_controller\TESTER_REMOTE_CONTROLLER.c"
 305  001E  0700     R  	mov a,_receiveDataBit[48]
 305  001F  0080     E  	mov rb,a
 305  0020  0700     R  	mov a,_receiveDataBit[49]
 305  0021  0080     E  	mov rc,a
 305  0022  0003        	ret
 305  0023              _initializeSoftware endp
 305  0023              #line 305 "e:\projects\5_tester_remote_controller\code\v1\tester_remote_controller\TESTER_REMOTE_CONTROLLER.c"
 305  0023              #pragma debug scope 1 1
 305  0023              public _runCountTask
 305  0023              #pragma debug scope 8 1
 309  0023              #line 309 "e:\projects\5_tester_remote_controller\code\v1\tester_remote_controller\TESTER_REMOTE_CONTROLLER.c"
 309  0000              _runCountTask .section 'code'
 309  0000              _runCountTask proc
 315  0000              #line 315 "e:\projects\5_tester_remote_controller\code\v1\tester_remote_controller\TESTER_REMOTE_CONTROLLER.c"
 315  0000  0FF7        	mov a,247
 315  0001  0200     R  	sub a,_rCountTask[0]
 315  0002  0F00        	mov a,0
 315  0003  1200     R  	sbc a,_rCountTask[1]
 315  0004  380A        	snz c
 315  0005  2800     R  	jmp _L18
 316  0006              #line 316 "e:\projects\5_tester_remote_controller\code\v1\tester_remote_controller\TESTER_REMOTE_CONTROLLER.c"
 316  0006  1480     R  	inc _rCountTask[0]
 316  0007  3D0A        	sz z
 316  0008  1480     R  	inc _rCountTask[1]
 316  0009  2800     R  	jmp _L19
 316  000A              _L18:
 319  000A              #line 319 "e:\projects\5_tester_remote_controller\code\v1\tester_remote_controller\TESTER_REMOTE_CONTROLLER.c"
 319  000A  1F00     R  	clr _rCountTask[0]
 319  000B  1F00     R  	clr _rCountTask[1]
 320  000C              #line 320 "e:\projects\5_tester_remote_controller\code\v1\tester_remote_controller\TESTER_REMOTE_CONTROLLER.c"
 320  000C  31BA        	set [58].3
 321  000D              #line 321 "e:\projects\5_tester_remote_controller\code\v1\tester_remote_controller\TESTER_REMOTE_CONTROLLER.c"
 321  000D  3400     R  	clr _rTaskflag[0].6
 321  000E              _L19:
"File: TESTER_REMOTE_CONTROLLER.c  Assembler  Version HGASM0202      Page 8

 325  000E              #line 325 "e:\projects\5_tester_remote_controller\code\v1\tester_remote_controller\TESTER_REMOTE_CONTROLLER.c"
 325  000E  3000     R  	set _rTaskflag[0].7
 328  000F              #line 328 "e:\projects\5_tester_remote_controller\code\v1\tester_remote_controller\TESTER_REMOTE_CONTROLLER.c"
 328  000F  0700     R  	mov a,_rCountTask[0]
 328  0010  0080     E  	mov rb,a
 328  0011  0700     R  	mov a,_rCountTask[1]
 328  0012  0080     E  	mov rc,a
 328  0013  0F07        	mov a,7  
 328  0014  0680     E  	andm a,rb  
 328  0015  0F00        	mov a,0  
 328  0016  0680     E  	andm a,rc
 328  0017  0700     E  	mov a,rb
 328  0018  0500     E  	or a,rc
 328  0019  390A        	snz z
 328  001A  2800     R  	jmp _L20
 329  001B              #line 329 "e:\projects\5_tester_remote_controller\code\v1\tester_remote_controller\TESTER_REMOTE_CONTROLLER.c"
 329  001B  3F98        	sz [24].7
 329  001C  2800     R  	jmp _L21
 330  001D              #line 330 "e:\projects\5_tester_remote_controller\code\v1\tester_remote_controller\TESTER_REMOTE_CONTROLLER.c"
 330  001D  3000     R  	set _rTaskflag1[0].0
 330  001E  2800     R  	jmp _L20
 330  001F              _L21:
 332  001F              #line 332 "e:\projects\5_tester_remote_controller\code\v1\tester_remote_controller\TESTER_REMOTE_CONTROLLER.c"
 332  001F  3B18        	snz [24].6
 332  0020  2800     R  	jmp _L20
 333  0021              #line 333 "e:\projects\5_tester_remote_controller\code\v1\tester_remote_controller\TESTER_REMOTE_CONTROLLER.c"
 333  0021  36F0        	clr [112].5
 334  0022              #line 334 "e:\projects\5_tester_remote_controller\code\v1\tester_remote_controller\TESTER_REMOTE_CONTROLLER.c"
 334  0022  3670        	clr [112].4
 335  0023              #line 335 "e:\projects\5_tester_remote_controller\code\v1\tester_remote_controller\TESTER_REMOTE_CONTROLLER.c"
 335  0023  35F0        	clr [112].3
 336  0024              #line 336 "e:\projects\5_tester_remote_controller\code\v1\tester_remote_controller\TESTER_REMOTE_CONTROLLER.c"
 336  0024  3570        	clr [112].2
 337  0025              #line 337 "e:\projects\5_tester_remote_controller\code\v1\tester_remote_controller\TESTER_REMOTE_CONTROLLER.c"
 337  0025  34F0        	clr [112].1
 337  0026              _L20:
 341  0026              #line 341 "e:\projects\5_tester_remote_controller\code\v1\tester_remote_controller\TESTER_REMOTE_CONTROLLER.c"
 341  0026  0700     R  	mov a,_rCountTask[0]
 341  0027  0080     E  	mov rb,a
 341  0028  0700     R  	mov a,_rCountTask[1]
 341  0029  0080     E  	mov rc,a
 341  002A  0F07        	mov a,7  
 341  002B  0680     E  	andm a,rb  
 341  002C  0F00        	mov a,0  
 341  002D  0680     E  	andm a,rc
 341  002E  0700     E  	mov a,rb
 341  002F  0500     E  	or a,rc
 341  0030  390A        	snz z
 341  0031  2800     R  	jmp _L22
 342  0032              #line 342 "e:\projects\5_tester_remote_controller\code\v1\tester_remote_controller\TESTER_REMOTE_CONTROLLER.c"
 342  0032  3F18        	sz [24].6
 342  0033  2800     R  	jmp _L23
 343  0034              #line 343 "e:\projects\5_tester_remote_controller\code\v1\tester_remote_controller\TESTER_REMOTE_CONTROLLER.c"
 343  0034  3000     R  	set _rTaskflag1[0].1
 343  0035  2800     R  	jmp _L22
 343  0036              _L23:
 345  0036              #line 345 "e:\projects\5_tester_remote_controller\code\v1\tester_remote_controller\TESTER_REMOTE_CONTROLLER.c"
 345  0036  3B98        	snz [24].7
 345  0037  2800     R  	jmp _L22
 346  0038              #line 346 "e:\projects\5_tester_remote_controller\code\v1\tester_remote_controller\TESTER_REMOTE_CONTROLLER.c"
"File: TESTER_REMOTE_CONTROLLER.c  Assembler  Version HGASM0202      Page 9

 346  0038  36F0        	clr [112].5
 347  0039              #line 347 "e:\projects\5_tester_remote_controller\code\v1\tester_remote_controller\TESTER_REMOTE_CONTROLLER.c"
 347  0039  3670        	clr [112].4
 348  003A              #line 348 "e:\projects\5_tester_remote_controller\code\v1\tester_remote_controller\TESTER_REMOTE_CONTROLLER.c"
 348  003A  35F0        	clr [112].3
 349  003B              #line 349 "e:\projects\5_tester_remote_controller\code\v1\tester_remote_controller\TESTER_REMOTE_CONTROLLER.c"
 349  003B  3570        	clr [112].2
 350  003C              #line 350 "e:\projects\5_tester_remote_controller\code\v1\tester_remote_controller\TESTER_REMOTE_CONTROLLER.c"
 350  003C  34F0        	clr [112].1
 350  003D              _L22:
 354  003D              #line 354 "e:\projects\5_tester_remote_controller\code\v1\tester_remote_controller\TESTER_REMOTE_CONTROLLER.c"
 354  003D  3000     R  	set _rTaskflag[0].2
 354  003E  0003        	ret
 354  003F              _runCountTask endp
 354  003F              #line 354 "e:\projects\5_tester_remote_controller\code\v1\tester_remote_controller\TESTER_REMOTE_CONTROLLER.c"
 354  003F              #pragma debug scope 1 1
 354  003F              public _createDataOutFun
 354  003F              #pragma debug scope 9 1
 357  003F              #line 357 "e:\projects\5_tester_remote_controller\code\v1\tester_remote_controller\TESTER_REMOTE_CONTROLLER.c"
 357  0000              _createDataOutFun .section 'code'
 357  0000              _createDataOutFun proc
 357  0000  0004[           local _createDataOutFun_2 db 4 dup(?)	; 0,4
            00
            ]
 359  0004              #line 359 "e:\projects\5_tester_remote_controller\code\v1\tester_remote_controller\TESTER_REMOTE_CONTROLLER.c"
 359  0000  0F17        	mov a,23
 359  0001  0200     R  	sub a,_k[0]
 359  0002  380A        	snz c
 359  0003  2800     R  	jmp _L31
 360  0004              #line 360 "e:\projects\5_tester_remote_controller\code\v1\tester_remote_controller\TESTER_REMOTE_CONTROLLER.c"
 360  0004  0700     R  	mov a,_k[0]
 360  0005  0080     E  	mov rb,a
 360  0006  1F00     E  	clr rc
 360  0007  340A        	clr c
 360  0008  1A80     E  	rlc rb
 360  0009  1A80     E  	rlc rc
 360  000A  0F00     R  	mov a,low offset _receiveDataBit
 360  000B  0300     E  	add a,rb
 360  000C  0083        	mov mp,a
 360  000D  0F00     R  	mov a,high offset _receiveDataBit
 360  000E  1300     E  	adc a,rc
 360  000F  0084        	mov sbp,a
 360  0010  2000     E  	call _Crom2Prom
 360  0011  0080     E  	mov rd,a
 360  0012  2000     E  	call _Crom2PromNext
 360  0013  0080     E  	mov re,a
 360  0014  0700     E  	mov a,rd
 360  0015  0080     R  	mov _createDataOutFun_2[0],a
 360  0016  0700     E  	mov a,re
 360  0017  0080     R  	mov _createDataOutFun_2[1],a
 360  0018  1F05        	clr acc
 360  0019  3C00     R  	sz _createDataOutFun_2[1].7
 360  001A  1F85        	set acc
 360  001B  0080     R  	mov _createDataOutFun_2[2],a
 360  001C  0080     R  	mov _createDataOutFun_2[3],a
 360  001D  0FF5        	mov a,245
 360  001E  0300     R  	add a,_k[0]
 360  001F  0080     E  	mov rb,a
 360  0020  0FFF        	mov a,255
 360  0021  1F00     E  	clr rc
"File: TESTER_REMOTE_CONTROLLER.c  Assembler  Version HGASM0202      Page 10

 360  0022  1380     E  	adcm a,rc
 360  0023  0700     R  	mov a,_createDataOutFun_2[0]
 360  0024  0080     E  	mov rd,a
 360  0025  0700     R  	mov a,_createDataOutFun_2[1]
 360  0026  0080     E  	mov re,a
 360  0027  0700     R  	mov a,_createDataOutFun_2[2]
 360  0028  0080     E  	mov rf,a
 360  0029  0700     R  	mov a,_createDataOutFun_2[3]
 360  002A  0080     E  	mov rg,a
 360  002B  1400     E  	inca rb
 360  002C  2800     R  	jmp _LI1
 360  002D              _LI2:
 360  002D  340A        	clr c
 360  002E  1A80     E  	rlc rd
 360  002F  1A80     E  	rlc re
 360  0030  1A80     E  	rlc rf
 360  0031  1A80     E  	rlc rg
 360  0032              _LI1:
 360  0032  1785        	sdz acc
 360  0033  2800     R  	jmp _LI2
 360  0034  0700     E  	mov a,rd
 360  0035  0080     R  	mov _shiftData[0],a
 360  0036  0700     E  	mov a,re
 360  0037  0080     R  	mov _shiftData[1],a
 360  0038  0700     E  	mov a,rf
 360  0039  0080     R  	mov _shiftData[2],a
 360  003A  0700     E  	mov a,rg
 360  003B  0080     R  	mov _shiftData[3],a
 361  003C              #line 361 "e:\projects\5_tester_remote_controller\code\v1\tester_remote_controller\TESTER_REMOTE_CONTROLLER.c"
 361  003C  0700     R  	mov a,_shiftData[0]
 361  003D  0380     R  	addm a,_receiveData[0]
 361  003E  0700     R  	mov a,_shiftData[1]
 361  003F  1380     R  	adcm a,_receiveData[1]
 361  0040  0700     R  	mov a,_shiftData[2]
 361  0041  1380     R  	adcm a,_receiveData[2]
 361  0042  0700     R  	mov a,_shiftData[3]
 361  0043  1380     R  	adcm a,_receiveData[3]
 361  0044  2800     R  	jmp _L34
 361  0045              _L31:
 364  0045              #line 364 "e:\projects\5_tester_remote_controller\code\v1\tester_remote_controller\TESTER_REMOTE_CONTROLLER.c"
 364  0045  0700     R  	mov a,_k[0]
 364  0046  0A18        	sub a,24
 364  0047  390A        	snz z
 364  0048  2800     R  	jmp _L32
 365  0049              #line 365 "e:\projects\5_tester_remote_controller\code\v1\tester_remote_controller\TESTER_REMOTE_CONTROLLER.c"
 365  0049  0700     R  	mov a,_receiveData[0]
 365  004A  0080     E  	mov rd,a
 365  004B  0700     R  	mov a,_receiveData[1]
 365  004C  0080     E  	mov re,a
 365  004D  0700     R  	mov a,_receiveData[2]
 365  004E  0080     E  	mov rf,a
 365  004F  0700     R  	mov a,_receiveData[3]
 365  0050  0080     E  	mov rg,a
 365  0051  0700     E  	mov a,rd
 365  0052  0080     R  	mov _SegmentDisplayNumber[0],a
 365  0053  0700     E  	mov a,re
 365  0054  0080     R  	mov _SegmentDisplayNumber[1],a
 366  0055              #line 366 "e:\projects\5_tester_remote_controller\code\v1\tester_remote_controller\TESTER_REMOTE_CONTROLLER.c"
 366  0055  1F00     R  	clr _receiveData[0]
 366  0056  1F00     R  	clr _receiveData[1]
"File: TESTER_REMOTE_CONTROLLER.c  Assembler  Version HGASM0202      Page 11

 366  0057  1F00     R  	clr _receiveData[2]
 366  0058  1F00     R  	clr _receiveData[3]
 366  0059              _L34:
 367  0059              #line 367 "e:\projects\5_tester_remote_controller\code\v1\tester_remote_controller\TESTER_REMOTE_CONTROLLER.c"
 367  0059  1480     R  	inc _k[0]
 367  005A              _L32:
 369  005A              #line 369 "e:\projects\5_tester_remote_controller\code\v1\tester_remote_controller\TESTER_REMOTE_CONTROLLER.c"
 369  005A  0700     R  	mov a,_rCountTask[0]
 369  005B  0CF8        	xor a,248
 369  005C  0500     R  	or a,_rCountTask[1]
 369  005D  390A        	snz z
 369  005E  2800     R  	jmp _L30
 370  005F              #line 370 "e:\projects\5_tester_remote_controller\code\v1\tester_remote_controller\TESTER_REMOTE_CONTROLLER.c"
 370  005F  0F0B        	mov a,11
 370  0060  0080     R  	mov _k[0],a
 370  0061              _L30:
 370  0061  0003        	ret
 370  0062              _createDataOutFun endp
 370  0062              #line 370 "e:\projects\5_tester_remote_controller\code\v1\tester_remote_controller\TESTER_REMOTE_CONTROLLER.c"
 370  0062              #pragma debug scope 1 1
 370  0062              public _stepperUp
 370  0062              #pragma debug scope 10 1
 375  0062              #line 375 "e:\projects\5_tester_remote_controller\code\v1\tester_remote_controller\TESTER_REMOTE_CONTROLLER.c"
 375  0000              _stepperUp .section 'code'
 375  0000              _stepperUp proc
 375  0000  00              local _stepperUp_2 db 1 dup(?)	; 0,1
 377  0001              #line 377 "e:\projects\5_tester_remote_controller\code\v1\tester_remote_controller\TESTER_REMOTE_CONTROLLER.c"
 377  0000  0700     R  	mov a,_stateStepperUp[0]
 377  0001  0080     R  	mov _stepperUp_2[0],a
 377  0002  0700     R  	mov a,_stepperUp_2[0]
 377  0003  0A00        	sub a,0
 377  0004  3D0A        	sz z
 377  0005  2800     R  	jmp _L37
 377  0006  0A01        	sub a,(1)-(0)
 377  0007  3D0A        	sz z
 377  0008  2800     R  	jmp _L38
 377  0009              #line 377 "e:\projects\5_tester_remote_controller\code\v1\tester_remote_controller\TESTER_REMOTE_CONTROLLER.c"
 377  0009  0700     R  	mov a,_stepperUp_2[0]
 377  000A  0A02        	sub a,2
 377  000B  3D0A        	sz z
 377  000C  2800     R  	jmp _L39
 377  000D  0700     R  	mov a,_stepperUp_2[0]
 377  000E  0A03        	sub a,3
 377  000F  390A        	snz z
 377  0010  2800     R  	jmp _L35
 405  0011              #line 405 "e:\projects\5_tester_remote_controller\code\v1\tester_remote_controller\TESTER_REMOTE_CONTROLLER.c"
 405  0011  36F0        	clr [112].5
 406  0012              #line 406 "e:\projects\5_tester_remote_controller\code\v1\tester_remote_controller\TESTER_REMOTE_CONTROLLER.c"
 406  0012  34F0        	clr [112].1
 407  0013              #line 407 "e:\projects\5_tester_remote_controller\code\v1\tester_remote_controller\TESTER_REMOTE_CONTROLLER.c"
 407  0013  35F0        	clr [112].3
 408  0014              #line 408 "e:\projects\5_tester_remote_controller\code\v1\tester_remote_controller\TESTER_REMOTE_CONTROLLER.c"
 408  0014  3270        	set [112].4
 409  0015              #line 409 "e:\projects\5_tester_remote_controller\code\v1\tester_remote_controller\TESTER_REMOTE_CONTROLLER.c"
 409  0015  3170        	set [112].2
 410  0016              #line 410 "e:\projects\5_tester_remote_controller\code\v1\tester_remote_controller\TESTER_REMOTE_CONTROLLER.c"
 410  0016  1F00     R  	clr _stateStepperUp[0]
 411  0017              #line 411 "e:\projects\5_tester_remote_controller\code\v1\tester_remote_controller\TESTER_REMOTE_CONTROLLER.c"
 411  0017  2800     R  	jmp _L35
 411  0018              _L37:
"File: TESTER_REMOTE_CONTROLLER.c  Assembler  Version HGASM0202      Page 12

 379  0018              #line 379 "e:\projects\5_tester_remote_controller\code\v1\tester_remote_controller\TESTER_REMOTE_CONTROLLER.c"
 379  0018  3670        	clr [112].4
 380  0019              #line 380 "e:\projects\5_tester_remote_controller\code\v1\tester_remote_controller\TESTER_REMOTE_CONTROLLER.c"
 380  0019  35F0        	clr [112].3
 381  001A              #line 381 "e:\projects\5_tester_remote_controller\code\v1\tester_remote_controller\TESTER_REMOTE_CONTROLLER.c"
 381  001A  32F0        	set [112].5
 382  001B              #line 382 "e:\projects\5_tester_remote_controller\code\v1\tester_remote_controller\TESTER_REMOTE_CONTROLLER.c"
 382  001B  30F0        	set [112].1
 383  001C              #line 383 "e:\projects\5_tester_remote_controller\code\v1\tester_remote_controller\TESTER_REMOTE_CONTROLLER.c"
 383  001C  3170        	set [112].2
 384  001D              #line 384 "e:\projects\5_tester_remote_controller\code\v1\tester_remote_controller\TESTER_REMOTE_CONTROLLER.c"
 384  001D  0F01        	mov a,1
 384  001E  0080     R  	mov _stateStepperUp[0],a
 385  001F              #line 385 "e:\projects\5_tester_remote_controller\code\v1\tester_remote_controller\TESTER_REMOTE_CONTROLLER.c"
 385  001F  2800     R  	jmp _L35
 385  0020              _L38:
 388  0020              #line 388 "e:\projects\5_tester_remote_controller\code\v1\tester_remote_controller\TESTER_REMOTE_CONTROLLER.c"
 388  0020  3570        	clr [112].2
 389  0021              #line 389 "e:\projects\5_tester_remote_controller\code\v1\tester_remote_controller\TESTER_REMOTE_CONTROLLER.c"
 389  0021  3670        	clr [112].4
 390  0022              #line 390 "e:\projects\5_tester_remote_controller\code\v1\tester_remote_controller\TESTER_REMOTE_CONTROLLER.c"
 390  0022  32F0        	set [112].5
 391  0023              #line 391 "e:\projects\5_tester_remote_controller\code\v1\tester_remote_controller\TESTER_REMOTE_CONTROLLER.c"
 391  0023  30F0        	set [112].1
 392  0024              #line 392 "e:\projects\5_tester_remote_controller\code\v1\tester_remote_controller\TESTER_REMOTE_CONTROLLER.c"
 392  0024  31F0        	set [112].3
 393  0025              #line 393 "e:\projects\5_tester_remote_controller\code\v1\tester_remote_controller\TESTER_REMOTE_CONTROLLER.c"
 393  0025  0F02        	mov a,2
 393  0026  0080     R  	mov _stateStepperUp[0],a
 394  0027              #line 394 "e:\projects\5_tester_remote_controller\code\v1\tester_remote_controller\TESTER_REMOTE_CONTROLLER.c"
 394  0027  2800     R  	jmp _L35
 394  0028              _L39:
 396  0028              #line 396 "e:\projects\5_tester_remote_controller\code\v1\tester_remote_controller\TESTER_REMOTE_CONTROLLER.c"
 396  0028  36F0        	clr [112].5
 397  0029              #line 397 "e:\projects\5_tester_remote_controller\code\v1\tester_remote_controller\TESTER_REMOTE_CONTROLLER.c"
 397  0029  34F0        	clr [112].1
 398  002A              #line 398 "e:\projects\5_tester_remote_controller\code\v1\tester_remote_controller\TESTER_REMOTE_CONTROLLER.c"
 398  002A  3570        	clr [112].2
 399  002B              #line 399 "e:\projects\5_tester_remote_controller\code\v1\tester_remote_controller\TESTER_REMOTE_CONTROLLER.c"
 399  002B  3270        	set [112].4
 400  002C              #line 400 "e:\projects\5_tester_remote_controller\code\v1\tester_remote_controller\TESTER_REMOTE_CONTROLLER.c"
 400  002C  31F0        	set [112].3
 401  002D              #line 401 "e:\projects\5_tester_remote_controller\code\v1\tester_remote_controller\TESTER_REMOTE_CONTROLLER.c"
 401  002D  0F03        	mov a,3
 401  002E  0080     R  	mov _stateStepperUp[0],a
 401  002F              _L35:
 401  002F  0003        	ret
 401  0030              _stepperUp endp
 401  0030              #line 401 "e:\projects\5_tester_remote_controller\code\v1\tester_remote_controller\TESTER_REMOTE_CONTROLLER.c"
 401  0030              #pragma debug scope 1 1
 401  0030              public _stepperDown
 401  0030              #pragma debug scope 11 1
 415  0030              #line 415 "e:\projects\5_tester_remote_controller\code\v1\tester_remote_controller\TESTER_REMOTE_CONTROLLER.c"
 415  0000              _stepperDown .section 'code'
 415  0000              _stepperDown proc
 415  0000  00              local _stepperDown_2 db 1 dup(?)	; 0,1
 417  0001              #line 417 "e:\projects\5_tester_remote_controller\code\v1\tester_remote_controller\TESTER_REMOTE_CONTROLLER.c"
 417  0000  0700     R  	mov a,_stateStepperDown[0]
 417  0001  0080     R  	mov _stepperDown_2[0],a
 417  0002  0700     R  	mov a,_stepperDown_2[0]
"File: TESTER_REMOTE_CONTROLLER.c  Assembler  Version HGASM0202      Page 13

 417  0003  0A00        	sub a,0
 417  0004  3D0A        	sz z
 417  0005  2800     R  	jmp _L43
 417  0006  0A01        	sub a,(1)-(0)
 417  0007  3D0A        	sz z
 417  0008  2800     R  	jmp _L44
 417  0009              #line 417 "e:\projects\5_tester_remote_controller\code\v1\tester_remote_controller\TESTER_REMOTE_CONTROLLER.c"
 417  0009  0700     R  	mov a,_stepperDown_2[0]
 417  000A  0A02        	sub a,2
 417  000B  3D0A        	sz z
 417  000C  2800     R  	jmp _L45
 417  000D  0700     R  	mov a,_stepperDown_2[0]
 417  000E  0A03        	sub a,3
 417  000F  390A        	snz z
 417  0010  2800     R  	jmp _L41
 445  0011              #line 445 "e:\projects\5_tester_remote_controller\code\v1\tester_remote_controller\TESTER_REMOTE_CONTROLLER.c"
 445  0011  36F0        	clr [112].5
 446  0012              #line 446 "e:\projects\5_tester_remote_controller\code\v1\tester_remote_controller\TESTER_REMOTE_CONTROLLER.c"
 446  0012  34F0        	clr [112].1
 447  0013              #line 447 "e:\projects\5_tester_remote_controller\code\v1\tester_remote_controller\TESTER_REMOTE_CONTROLLER.c"
 447  0013  35F0        	clr [112].3
 448  0014              #line 448 "e:\projects\5_tester_remote_controller\code\v1\tester_remote_controller\TESTER_REMOTE_CONTROLLER.c"
 448  0014  3270        	set [112].4
 449  0015              #line 449 "e:\projects\5_tester_remote_controller\code\v1\tester_remote_controller\TESTER_REMOTE_CONTROLLER.c"
 449  0015  3170        	set [112].2
 450  0016              #line 450 "e:\projects\5_tester_remote_controller\code\v1\tester_remote_controller\TESTER_REMOTE_CONTROLLER.c"
 450  0016  1F00     R  	clr _stateStepperDown[0]
 451  0017              #line 451 "e:\projects\5_tester_remote_controller\code\v1\tester_remote_controller\TESTER_REMOTE_CONTROLLER.c"
 451  0017  2800     R  	jmp _L41
 451  0018              _L43:
 419  0018              #line 419 "e:\projects\5_tester_remote_controller\code\v1\tester_remote_controller\TESTER_REMOTE_CONTROLLER.c"
 419  0018  36F0        	clr [112].5
 420  0019              #line 420 "e:\projects\5_tester_remote_controller\code\v1\tester_remote_controller\TESTER_REMOTE_CONTROLLER.c"
 420  0019  34F0        	clr [112].1
 421  001A              #line 421 "e:\projects\5_tester_remote_controller\code\v1\tester_remote_controller\TESTER_REMOTE_CONTROLLER.c"
 421  001A  3570        	clr [112].2
 422  001B              #line 422 "e:\projects\5_tester_remote_controller\code\v1\tester_remote_controller\TESTER_REMOTE_CONTROLLER.c"
 422  001B  3270        	set [112].4
 423  001C              #line 423 "e:\projects\5_tester_remote_controller\code\v1\tester_remote_controller\TESTER_REMOTE_CONTROLLER.c"
 423  001C  31F0        	set [112].3
 424  001D              #line 424 "e:\projects\5_tester_remote_controller\code\v1\tester_remote_controller\TESTER_REMOTE_CONTROLLER.c"
 424  001D  0F01        	mov a,1
 424  001E  0080     R  	mov _stateStepperDown[0],a
 425  001F              #line 425 "e:\projects\5_tester_remote_controller\code\v1\tester_remote_controller\TESTER_REMOTE_CONTROLLER.c"
 425  001F  2800     R  	jmp _L41
 425  0020              _L44:
 428  0020              #line 428 "e:\projects\5_tester_remote_controller\code\v1\tester_remote_controller\TESTER_REMOTE_CONTROLLER.c"
 428  0020  3570        	clr [112].2
 429  0021              #line 429 "e:\projects\5_tester_remote_controller\code\v1\tester_remote_controller\TESTER_REMOTE_CONTROLLER.c"
 429  0021  3670        	clr [112].4
 430  0022              #line 430 "e:\projects\5_tester_remote_controller\code\v1\tester_remote_controller\TESTER_REMOTE_CONTROLLER.c"
 430  0022  32F0        	set [112].5
 431  0023              #line 431 "e:\projects\5_tester_remote_controller\code\v1\tester_remote_controller\TESTER_REMOTE_CONTROLLER.c"
 431  0023  30F0        	set [112].1
 432  0024              #line 432 "e:\projects\5_tester_remote_controller\code\v1\tester_remote_controller\TESTER_REMOTE_CONTROLLER.c"
 432  0024  31F0        	set [112].3
 433  0025              #line 433 "e:\projects\5_tester_remote_controller\code\v1\tester_remote_controller\TESTER_REMOTE_CONTROLLER.c"
 433  0025  0F02        	mov a,2
 433  0026  0080     R  	mov _stateStepperDown[0],a
 434  0027              #line 434 "e:\projects\5_tester_remote_controller\code\v1\tester_remote_controller\TESTER_REMOTE_CONTROLLER.c"
"File: TESTER_REMOTE_CONTROLLER.c  Assembler  Version HGASM0202      Page 14

 434  0027  2800     R  	jmp _L41
 434  0028              _L45:
 436  0028              #line 436 "e:\projects\5_tester_remote_controller\code\v1\tester_remote_controller\TESTER_REMOTE_CONTROLLER.c"
 436  0028  3670        	clr [112].4
 437  0029              #line 437 "e:\projects\5_tester_remote_controller\code\v1\tester_remote_controller\TESTER_REMOTE_CONTROLLER.c"
 437  0029  35F0        	clr [112].3
 438  002A              #line 438 "e:\projects\5_tester_remote_controller\code\v1\tester_remote_controller\TESTER_REMOTE_CONTROLLER.c"
 438  002A  32F0        	set [112].5
 439  002B              #line 439 "e:\projects\5_tester_remote_controller\code\v1\tester_remote_controller\TESTER_REMOTE_CONTROLLER.c"
 439  002B  30F0        	set [112].1
 440  002C              #line 440 "e:\projects\5_tester_remote_controller\code\v1\tester_remote_controller\TESTER_REMOTE_CONTROLLER.c"
 440  002C  3170        	set [112].2
 441  002D              #line 441 "e:\projects\5_tester_remote_controller\code\v1\tester_remote_controller\TESTER_REMOTE_CONTROLLER.c"
 441  002D  0F03        	mov a,3
 441  002E  0080     R  	mov _stateStepperDown[0],a
 441  002F              _L41:
 441  002F  0003        	ret
 441  0030              _stepperDown endp
 441  0030              #line 441 "e:\projects\5_tester_remote_controller\code\v1\tester_remote_controller\TESTER_REMOTE_CONTROLLER.c"
 441  0030              #pragma debug scope 1 1
 441  0030              public _fSegmentDisplay
 441  0030              #pragma debug scope 12 1
 456  0030              #line 456 "e:\projects\5_tester_remote_controller\code\v1\tester_remote_controller\TESTER_REMOTE_CONTROLLER.c"
 456  0000              _fSegmentDisplay .section 'code'
 456  0000              _fSegmentDisplay proc
 456  0000  00              local _fSegmentDisplay_2 db 1 dup(?)	; 0,1
 459  0001              #line 459 "e:\projects\5_tester_remote_controller\code\v1\tester_remote_controller\TESTER_REMOTE_CONTROLLER.c"
 459  0000  0700     R  	mov a,_segCountBit[0]
 459  0001  0080     R  	mov _fSegmentDisplay_2[0],a
 459  0002  0700     R  	mov a,_fSegmentDisplay_2[0]
 459  0003  0A00        	sub a,0
 459  0004  3D0A        	sz z
 459  0005  2800     R  	jmp _L49
 459  0006  0A01        	sub a,(1)-(0)
 459  0007  3D0A        	sz z
 459  0008  2800     R  	jmp _L50
 459  0009              #line 459 "e:\projects\5_tester_remote_controller\code\v1\tester_remote_controller\TESTER_REMOTE_CONTROLLER.c"
 459  0009  0700     R  	mov a,_fSegmentDisplay_2[0]
 459  000A  0A02        	sub a,2
 459  000B  3D0A        	sz z
 459  000C  2800     R  	jmp _L51
 459  000D  0700     R  	mov a,_fSegmentDisplay_2[0]
 459  000E  0A03        	sub a,3
 459  000F  390A        	snz z
 459  0010  2800     R  	jmp _L47
 501  0011              #line 501 "e:\projects\5_tester_remote_controller\code\v1\tester_remote_controller\TESTER_REMOTE_CONTROLLER.c"
 501  0011  0700     R  	mov a,_segDisplaynum[0]
 501  0012  0080     E  	mov rb,a
 501  0013  0700     R  	mov a,_segDisplaynum[1]
 501  0014  0080     E  	mov rc,a
 501  0015  0700     E  	mov a,rb
 501  0016  0080     R  	mov _segDisplaynumFin[0],a
 502  0017              #line 502 "e:\projects\5_tester_remote_controller\code\v1\tester_remote_controller\TESTER_REMOTE_CONTROLLER.c"
 502  0017  3024        	set [36].0
 503  0018              #line 503 "e:\projects\5_tester_remote_controller\code\v1\tester_remote_controller\TESTER_REMOTE_CONTROLLER.c"
 503  0018  30A4        	set [36].1
 504  0019              #line 504 "e:\projects\5_tester_remote_controller\code\v1\tester_remote_controller\TESTER_REMOTE_CONTROLLER.c"
 504  0019  3124        	set [36].2
 505  001A              #line 505 "e:\projects\5_tester_remote_controller\code\v1\tester_remote_controller\TESTER_REMOTE_CONTROLLER.c"
 505  001A  0F00     R  	mov a,low offset _tblSegmentNumberSelect
"File: TESTER_REMOTE_CONTROLLER.c  Assembler  Version HGASM0202      Page 15

 505  001B  0300     R  	add a,_segDisplaynumFin[0]
 505  001C  0083        	mov mp,a
 505  001D  0F00     R  	mov a,high offset _tblSegmentNumberSelect
 505  001E  1F04        	clr sbp
 505  001F  1384        	adcm a,sbp
 505  0020  2000     E  	call _Crom2Prom
 505  0021  0094        	mov [20],a
 506  0022              #line 506 "e:\projects\5_tester_remote_controller\code\v1\tester_remote_controller\TESTER_REMOTE_CONTROLLER.c"
 506  0022  35A4        	clr [36].3
 507  0023              #line 507 "e:\projects\5_tester_remote_controller\code\v1\tester_remote_controller\TESTER_REMOTE_CONTROLLER.c"
 507  0023  1F00     R  	clr _segCountBit[0]
 508  0024              #line 508 "e:\projects\5_tester_remote_controller\code\v1\tester_remote_controller\TESTER_REMOTE_CONTROLLER.c"
 508  0024  2800     R  	jmp _L47
 508  0025              _L49:
 461  0025              #line 461 "e:\projects\5_tester_remote_controller\code\v1\tester_remote_controller\TESTER_REMOTE_CONTROLLER.c"
 461  0025  1F00     R  	clr _segDisplaynumFin[0]
 462  0026              #line 462 "e:\projects\5_tester_remote_controller\code\v1\tester_remote_controller\TESTER_REMOTE_CONTROLLER.c"
 462  0026  0700     R  	mov a,_SegmentDisplayNumber[0]
 462  0027  0080     R  	mov _segDisplaynum[0],a
 462  0028  0700     R  	mov a,_SegmentDisplayNumber[1]
 462  0029  0080     R  	mov _segDisplaynum[1],a
 462  002A              _L53:
 463  002A              #line 463 "e:\projects\5_tester_remote_controller\code\v1\tester_remote_controller\TESTER_REMOTE_CONTROLLER.c"
 463  002A  0FE7        	mov a,231
 463  002B  0200     R  	sub a,_segDisplaynum[0]
 463  002C  0F03        	mov a,3
 463  002D  1200     R  	sbc a,_segDisplaynum[1]
 463  002E  3C0A        	sz c
 463  002F  2800     R  	jmp _L59
 464  0030              #line 464 "e:\projects\5_tester_remote_controller\code\v1\tester_remote_controller\TESTER_REMOTE_CONTROLLER.c"
 464  0030  0F18        	mov a,24
 464  0031  0380     R  	addm a,_segDisplaynum[0]
 464  0032  0FFC        	mov a,252
 464  0033  1380     R  	adcm a,_segDisplaynum[1]
 465  0034              #line 465 "e:\projects\5_tester_remote_controller\code\v1\tester_remote_controller\TESTER_REMOTE_CONTROLLER.c"
 465  0034  1480     R  	inc _segDisplaynumFin[0]
 465  0035  2800     R  	jmp _L53
 465  0036              _L59:
 467  0036              #line 467 "e:\projects\5_tester_remote_controller\code\v1\tester_remote_controller\TESTER_REMOTE_CONTROLLER.c"
 467  0036  31A4        	set [36].3
 468  0037              #line 468 "e:\projects\5_tester_remote_controller\code\v1\tester_remote_controller\TESTER_REMOTE_CONTROLLER.c"
 468  0037  3124        	set [36].2
 469  0038              #line 469 "e:\projects\5_tester_remote_controller\code\v1\tester_remote_controller\TESTER_REMOTE_CONTROLLER.c"
 469  0038  30A4        	set [36].1
 470  0039              #line 470 "e:\projects\5_tester_remote_controller\code\v1\tester_remote_controller\TESTER_REMOTE_CONTROLLER.c"
 470  0039  0F00     R  	mov a,low offset _tblSegmentNumberSelect
 470  003A  0300     R  	add a,_segDisplaynumFin[0]
 470  003B  0083        	mov mp,a
 470  003C  0F00     R  	mov a,high offset _tblSegmentNumberSelect
 470  003D  1F04        	clr sbp
 470  003E  1384        	adcm a,sbp
 470  003F  2000     E  	call _Crom2Prom
 470  0040  0094        	mov [20],a
 471  0041              #line 471 "e:\projects\5_tester_remote_controller\code\v1\tester_remote_controller\TESTER_REMOTE_CONTROLLER.c"
 471  0041  3424        	clr [36].0
 472  0042              #line 472 "e:\projects\5_tester_remote_controller\code\v1\tester_remote_controller\TESTER_REMOTE_CONTROLLER.c"
 472  0042  0F01        	mov a,1
 472  0043  0080     R  	mov _segCountBit[0],a
 473  0044              #line 473 "e:\projects\5_tester_remote_controller\code\v1\tester_remote_controller\TESTER_REMOTE_CONTROLLER.c"
 473  0044  2800     R  	jmp _L47
"File: TESTER_REMOTE_CONTROLLER.c  Assembler  Version HGASM0202      Page 16

 473  0045              _L50:
 475  0045              #line 475 "e:\projects\5_tester_remote_controller\code\v1\tester_remote_controller\TESTER_REMOTE_CONTROLLER.c"
 475  0045  1F00     R  	clr _segDisplaynumFin[0]
 475  0046              _L55:
 476  0046              #line 476 "e:\projects\5_tester_remote_controller\code\v1\tester_remote_controller\TESTER_REMOTE_CONTROLLER.c"
 476  0046  0F63        	mov a,99
 476  0047  0200     R  	sub a,_segDisplaynum[0]
 476  0048  0F00        	mov a,0
 476  0049  1200     R  	sbc a,_segDisplaynum[1]
 476  004A  3C0A        	sz c
 476  004B  2800     R  	jmp _L60
 477  004C              #line 477 "e:\projects\5_tester_remote_controller\code\v1\tester_remote_controller\TESTER_REMOTE_CONTROLLER.c"
 477  004C  0F9C        	mov a,156
 477  004D  0380     R  	addm a,_segDisplaynum[0]
 477  004E  0FFF        	mov a,255
 477  004F  1380     R  	adcm a,_segDisplaynum[1]
 478  0050              #line 478 "e:\projects\5_tester_remote_controller\code\v1\tester_remote_controller\TESTER_REMOTE_CONTROLLER.c"
 478  0050  1480     R  	inc _segDisplaynumFin[0]
 478  0051  2800     R  	jmp _L55
 478  0052              _L60:
 480  0052              #line 480 "e:\projects\5_tester_remote_controller\code\v1\tester_remote_controller\TESTER_REMOTE_CONTROLLER.c"
 480  0052  31A4        	set [36].3
 481  0053              #line 481 "e:\projects\5_tester_remote_controller\code\v1\tester_remote_controller\TESTER_REMOTE_CONTROLLER.c"
 481  0053  3124        	set [36].2
 482  0054              #line 482 "e:\projects\5_tester_remote_controller\code\v1\tester_remote_controller\TESTER_REMOTE_CONTROLLER.c"
 482  0054  3024        	set [36].0
 483  0055              #line 483 "e:\projects\5_tester_remote_controller\code\v1\tester_remote_controller\TESTER_REMOTE_CONTROLLER.c"
 483  0055  0F00     R  	mov a,low offset _tblSegmentNumberSelect
 483  0056  0300     R  	add a,_segDisplaynumFin[0]
 483  0057  0083        	mov mp,a
 483  0058  0F00     R  	mov a,high offset _tblSegmentNumberSelect
 483  0059  1F04        	clr sbp
 483  005A  1384        	adcm a,sbp
 483  005B  2000     E  	call _Crom2Prom
 483  005C  0094        	mov [20],a
 484  005D              #line 484 "e:\projects\5_tester_remote_controller\code\v1\tester_remote_controller\TESTER_REMOTE_CONTROLLER.c"
 484  005D  34A4        	clr [36].1
 485  005E              #line 485 "e:\projects\5_tester_remote_controller\code\v1\tester_remote_controller\TESTER_REMOTE_CONTROLLER.c"
 485  005E  0F02        	mov a,2
 485  005F  0080     R  	mov _segCountBit[0],a
 486  0060              #line 486 "e:\projects\5_tester_remote_controller\code\v1\tester_remote_controller\TESTER_REMOTE_CONTROLLER.c"
 486  0060  2800     R  	jmp _L47
 486  0061              _L51:
 488  0061              #line 488 "e:\projects\5_tester_remote_controller\code\v1\tester_remote_controller\TESTER_REMOTE_CONTROLLER.c"
 488  0061  1F00     R  	clr _segDisplaynumFin[0]
 488  0062              _L57:
 489  0062              #line 489 "e:\projects\5_tester_remote_controller\code\v1\tester_remote_controller\TESTER_REMOTE_CONTROLLER.c"
 489  0062  0F09        	mov a,9
 489  0063  0200     R  	sub a,_segDisplaynum[0]
 489  0064  0F00        	mov a,0
 489  0065  1200     R  	sbc a,_segDisplaynum[1]
 489  0066  3C0A        	sz c
 489  0067  2800     R  	jmp _L61
 490  0068              #line 490 "e:\projects\5_tester_remote_controller\code\v1\tester_remote_controller\TESTER_REMOTE_CONTROLLER.c"
 490  0068  0FF6        	mov a,246
 490  0069  0380     R  	addm a,_segDisplaynum[0]
 490  006A  0FFF        	mov a,255
 490  006B  1380     R  	adcm a,_segDisplaynum[1]
 491  006C              #line 491 "e:\projects\5_tester_remote_controller\code\v1\tester_remote_controller\TESTER_REMOTE_CONTROLLER.c"
 491  006C  1480     R  	inc _segDisplaynumFin[0]
"File: TESTER_REMOTE_CONTROLLER.c  Assembler  Version HGASM0202      Page 17

 491  006D  2800     R  	jmp _L57
 491  006E              _L61:
 493  006E              #line 493 "e:\projects\5_tester_remote_controller\code\v1\tester_remote_controller\TESTER_REMOTE_CONTROLLER.c"
 493  006E  3024        	set [36].0
 494  006F              #line 494 "e:\projects\5_tester_remote_controller\code\v1\tester_remote_controller\TESTER_REMOTE_CONTROLLER.c"
 494  006F  30A4        	set [36].1
 495  0070              #line 495 "e:\projects\5_tester_remote_controller\code\v1\tester_remote_controller\TESTER_REMOTE_CONTROLLER.c"
 495  0070  31A4        	set [36].3
 496  0071              #line 496 "e:\projects\5_tester_remote_controller\code\v1\tester_remote_controller\TESTER_REMOTE_CONTROLLER.c"
 496  0071  0F00     R  	mov a,low offset _tblSegmentNumberSelect
 496  0072  0300     R  	add a,_segDisplaynumFin[0]
 496  0073  0083        	mov mp,a
 496  0074  0F00     R  	mov a,high offset _tblSegmentNumberSelect
 496  0075  1F04        	clr sbp
 496  0076  1384        	adcm a,sbp
 496  0077  2000     E  	call _Crom2Prom
 496  0078  0094        	mov [20],a
 497  0079              #line 497 "e:\projects\5_tester_remote_controller\code\v1\tester_remote_controller\TESTER_REMOTE_CONTROLLER.c"
 497  0079  3524        	clr [36].2
 498  007A              #line 498 "e:\projects\5_tester_remote_controller\code\v1\tester_remote_controller\TESTER_REMOTE_CONTROLLER.c"
 498  007A  0F03        	mov a,3
 498  007B  0080     R  	mov _segCountBit[0],a
 498  007C              _L47:
 498  007C  0003        	ret
 498  007D              _fSegmentDisplay endp
 498  007D              #line 498 "e:\projects\5_tester_remote_controller\code\v1\tester_remote_controller\TESTER_REMOTE_CONTROLLER.c"
 498  007D              #pragma debug scope 1 1
 498  007D              ___intc0 equ [16]
 498  007D              public _main
 498  007D              #pragma debug scope 13 1
 121  007D              #line 121 "e:\projects\5_tester_remote_controller\code\v1\tester_remote_controller\TESTER_REMOTE_CONTROLLER.c"
 121  007D              IFDEF WITH_DEFAULT_STARTUP
 121  007D              extern _main_initial0:near
 121  007D              extern _main_startup:near
 121  007D              ENDIF
 121  007D              
 121  007D              ROMBANK 0 @start
 121  0000              @start .section com_l 'code'
 121  0000              _main_startup1:
 121  0000              @start .section com_e 'code'
 121  0000  2800     R  	jmp _main
 121  0001              
 121  0000              _main .section 'code'
 121  0000              _main proc
 122  0000              #line 122 "e:\projects\5_tester_remote_controller\code\v1\tester_remote_controller\TESTER_REMOTE_CONTROLLER.c"
 122  0000  2000     R  	call _initializeHardware
 123  0001              #line 123 "e:\projects\5_tester_remote_controller\code\v1\tester_remote_controller\TESTER_REMOTE_CONTROLLER.c"
 123  0001  2000     R  	call _initializeSoftware
 126  0002              #line 126 "e:\projects\5_tester_remote_controller\code\v1\tester_remote_controller\TESTER_REMOTE_CONTROLLER.c"
 126  0002  3010        	set [16].0
 126  0003              _L70:
 131  0003              #line 131 "e:\projects\5_tester_remote_controller\code\v1\tester_remote_controller\TESTER_REMOTE_CONTROLLER.c"
 131  0003              ;# 131 "e:\projects\5_tester_remote_controller\code\v1\tester_remote_controller\TESTER_REMOTE_CONTROLLER.c" 1
 131  0003  0001        	clr wdt
 133  0004              #line 133 "e:\projects\5_tester_remote_controller\code\v1\tester_remote_controller\TESTER_REMOTE_CONTROLLER.c"
 133  0004  3800     R  	snz _rTaskflag[0].0
 133  0005  2800     R  	jmp _L63
 135  0006              #line 135 "e:\projects\5_tester_remote_controller\code\v1\tester_remote_controller\TESTER_REMOTE_CONTROLLER.c"
 135  0006  2000     R  	call _runCountTask
 137  0007              #line 137 "e:\projects\5_tester_remote_controller\code\v1\tester_remote_controller\TESTER_REMOTE_CONTROLLER.c"
"File: TESTER_REMOTE_CONTROLLER.c  Assembler  Version HGASM0202      Page 18

 137  0007  3400     R  	clr _rTaskflag[0].0
 137  0008              _L63:
 140  0008              #line 140 "e:\projects\5_tester_remote_controller\code\v1\tester_remote_controller\TESTER_REMOTE_CONTROLLER.c"
 140  0008  3800     R  	snz _rTaskflag[0].2
 140  0009  2800     R  	jmp _L64
 142  000A              #line 142 "e:\projects\5_tester_remote_controller\code\v1\tester_remote_controller\TESTER_REMOTE_CONTROLLER.c"
 142  000A  2000     R  	call _fSegmentDisplay
 144  000B              #line 144 "e:\projects\5_tester_remote_controller\code\v1\tester_remote_controller\TESTER_REMOTE_CONTROLLER.c"
 144  000B  3400     R  	clr _rTaskflag[0].2
 144  000C              _L64:
 147  000C              #line 147 "e:\projects\5_tester_remote_controller\code\v1\tester_remote_controller\TESTER_REMOTE_CONTROLLER.c"
 147  000C  3800     R  	snz _rTaskflag[0].7
 147  000D  2800     R  	jmp _L65
 149  000E              #line 149 "e:\projects\5_tester_remote_controller\code\v1\tester_remote_controller\TESTER_REMOTE_CONTROLLER.c"
 149  000E  2000     R  	call _createDataOutFun
 151  000F              #line 151 "e:\projects\5_tester_remote_controller\code\v1\tester_remote_controller\TESTER_REMOTE_CONTROLLER.c"
 151  000F  3400     R  	clr _rTaskflag[0].7
 151  0010              _L65:
 154  0010              #line 154 "e:\projects\5_tester_remote_controller\code\v1\tester_remote_controller\TESTER_REMOTE_CONTROLLER.c"
 154  0010  3800     R  	snz _rTaskflag1[0].0
 154  0011  2800     R  	jmp _L66
 156  0012              #line 156 "e:\projects\5_tester_remote_controller\code\v1\tester_remote_controller\TESTER_REMOTE_CONTROLLER.c"
 156  0012  2000     R  	call _stepperUp
 158  0013              #line 158 "e:\projects\5_tester_remote_controller\code\v1\tester_remote_controller\TESTER_REMOTE_CONTROLLER.c"
 158  0013  3400     R  	clr _rTaskflag1[0].0
 158  0014              _L66:
 161  0014              #line 161 "e:\projects\5_tester_remote_controller\code\v1\tester_remote_controller\TESTER_REMOTE_CONTROLLER.c"
 161  0014  3800     R  	snz _rTaskflag1[0].1
 161  0015  2800     R  	jmp _L67
 163  0016              #line 163 "e:\projects\5_tester_remote_controller\code\v1\tester_remote_controller\TESTER_REMOTE_CONTROLLER.c"
 163  0016  2000     R  	call _stepperDown
 165  0017              #line 165 "e:\projects\5_tester_remote_controller\code\v1\tester_remote_controller\TESTER_REMOTE_CONTROLLER.c"
 165  0017  3400     R  	clr _rTaskflag1[0].1
 165  0018              _L67:
 168  0018              #line 168 "e:\projects\5_tester_remote_controller\code\v1\tester_remote_controller\TESTER_REMOTE_CONTROLLER.c"
 168  0018  3000     R  	set _rTaskflag[0].1
 168  0019              _L68:
 169  0019              #line 169 "e:\projects\5_tester_remote_controller\code\v1\tester_remote_controller\TESTER_REMOTE_CONTROLLER.c"
 169  0019  3800     R  	snz _rTaskflag[0].1
 169  001A  2800     R  	jmp _L70
 171  001B              #line 171 "e:\projects\5_tester_remote_controller\code\v1\tester_remote_controller\TESTER_REMOTE_CONTROLLER.c"
 171  001B              ;# 171 "e:\projects\5_tester_remote_controller\code\v1\tester_remote_controller\TESTER_REMOTE_CONTROLLER.c" 1
 171  001B  0000        	NOP
 172  001C              #line 172 "e:\projects\5_tester_remote_controller\code\v1\tester_remote_controller\TESTER_REMOTE_CONTROLLER.c"
 172  001C              ;# 172 "e:\projects\5_tester_remote_controller\code\v1\tester_remote_controller\TESTER_REMOTE_CONTROLLER.c" 1
 172  001C  0000        	NOP
 173  001D              #line 173 "e:\projects\5_tester_remote_controller\code\v1\tester_remote_controller\TESTER_REMOTE_CONTROLLER.c"
 173  001D              ;# 173 "e:\projects\5_tester_remote_controller\code\v1\tester_remote_controller\TESTER_REMOTE_CONTROLLER.c" 1
 173  001D  0000        	NOP
 174  001E              #line 174 "e:\projects\5_tester_remote_controller\code\v1\tester_remote_controller\TESTER_REMOTE_CONTROLLER.c"
 174  001E              ;# 174 "e:\projects\5_tester_remote_controller\code\v1\tester_remote_controller\TESTER_REMOTE_CONTROLLER.c" 1
 174  001E  0000        	NOP
 175  001F              #line 175 "e:\projects\5_tester_remote_controller\code\v1\tester_remote_controller\TESTER_REMOTE_CONTROLLER.c"
 175  001F              ;# 175 "e:\projects\5_tester_remote_controller\code\v1\tester_remote_controller\TESTER_REMOTE_CONTROLLER.c" 1
 175  001F  0000        	NOP
 176  0020              #line 176 "e:\projects\5_tester_remote_controller\code\v1\tester_remote_controller\TESTER_REMOTE_CONTROLLER.c"
 176  0020              ;# 176 "e:\projects\5_tester_remote_controller\code\v1\tester_remote_controller\TESTER_REMOTE_CONTROLLER.c" 1
 176  0020  0000        	NOP
 177  0021              #line 177 "e:\projects\5_tester_remote_controller\code\v1\tester_remote_controller\TESTER_REMOTE_CONTROLLER.c"
 177  0021              ;# 177 "e:\projects\5_tester_remote_controller\code\v1\tester_remote_controller\TESTER_REMOTE_CONTROLLER.c" 1
"File: TESTER_REMOTE_CONTROLLER.c  Assembler  Version HGASM0202      Page 19

 177  0021  0000        	NOP
 178  0022              #line 178 "e:\projects\5_tester_remote_controller\code\v1\tester_remote_controller\TESTER_REMOTE_CONTROLLER.c"
 178  0022              ;# 178 "e:\projects\5_tester_remote_controller\code\v1\tester_remote_controller\TESTER_REMOTE_CONTROLLER.c" 1
 178  0022  0000        	NOP
 179  0023              #line 179 "e:\projects\5_tester_remote_controller\code\v1\tester_remote_controller\TESTER_REMOTE_CONTROLLER.c"
 179  0023              ;# 179 "e:\projects\5_tester_remote_controller\code\v1\tester_remote_controller\TESTER_REMOTE_CONTROLLER.c" 1
 179  0023  0000        	NOP
 179  0024  2800     R  	jmp _L68
 179  0025  2800     R  	jmp $
 179  0026              _main endp
 179  0026              
 179  0026              @dummy endp
 179  0026              
 179  0026              #line 179 "e:\projects\5_tester_remote_controller\code\v1\tester_remote_controller\TESTER_REMOTE_CONTROLLER.c"
 179  0026              #pragma debug scope 1 1
 179  0026              public _tblSegmentNumberSelect
 179  0000              @crom	.section 'crom'
  89  0000              #line 89 "e:\projects\5_tester_remote_controller\code\v1\tester_remote_controller\TESTER_REMOTE_CONTROLLER.c"
  89  0000              @crom	.section	'crom'
  89  0000              _tblSegmentNumberSelect:
  89  0000              #pragma debug array 42 8 10 1
  89  0000              #pragma debug array 42 8 10 1
  89  0000              #pragma debug variable 42 1 _tblSegmentNumberSelect "tblSegmentNumberSelect"
  89  0000              	db 63
  89  0001              	db 6
  89  0001              	db 91
  89  0002              	db 79
  89  0002              	db 102
  89  0003              	db 109
  89  0003              	db 125
  89  0004              	db 7
  89  0004              	db 127
  89  0005              	db 111
  89  0005              public _stateStepperDown
  89  0000              @HCCINIT	.section 'data'
  85  0000              #line 85 "e:\projects\5_tester_remote_controller\code\v1\tester_remote_controller\TESTER_REMOTE_CONTROLLER.c"
  85  0000              @HCCINIT_stateStepperDown .section 'data'
  85  0000              _stateStepperDown label byte
  85  0000              #pragma debug variable 8 1 _stateStepperDown "stateStepperDown"
  85  0000              	db 0
  85  0000              @ROMDATA_BASE .section inpage 'code'
  85  0000              	db 0
  85  0001              @HCCINIT_stateStepperDown .section 'data'
  85  0001              public _stateStepperUp
  84  0001              #line 84 "e:\projects\5_tester_remote_controller\code\v1\tester_remote_controller\TESTER_REMOTE_CONTROLLER.c"
  84  0000              @HCCINIT_stateStepperUp .section 'data'
  84  0000              _stateStepperUp label byte
  84  0000              #pragma debug variable 8 1 _stateStepperUp "stateStepperUp"
  84  0000              	db 0
  84  0001              @ROMDATA_BASE .section inpage 'code'
  84  0001              	db 0
  84  0001              @HCCINIT_stateStepperUp .section 'data'
  84  0001              public _k
  82  0001              #line 82 "e:\projects\5_tester_remote_controller\code\v1\tester_remote_controller\TESTER_REMOTE_CONTROLLER.c"
  82  0000              @HCCINIT_k .section 'data'
  82  0000              _k label byte
  82  0000              #pragma debug variable 8 1 _k "k"
  82  0000              	db 11
  82  0001              @ROMDATA_BASE .section inpage 'code'
  82  0001              	db 11
"File: TESTER_REMOTE_CONTROLLER.c  Assembler  Version HGASM0202      Page 20

  82  0001              @HCCINIT_k .section 'data'
  80  0001              #line 80 "e:\projects\5_tester_remote_controller\code\v1\tester_remote_controller\TESTER_REMOTE_CONTROLLER.c"
  80  0001              public _receiveDataBit
  80  0000              @HCCINIT0_receiveDataBit .section 'data'
  80  0000  0030[       _receiveDataBit	db 48 dup(0)
            00
            ]
  80  0030              #pragma debug array 43 11 24 1
  80  0030              #pragma debug array 43 11 24 1
  80  0030              #pragma debug variable 43 1 _receiveDataBit "receiveDataBit"
  80  0030              
  80  0000              @HCCINIT .section 'data'
  80  0000              public _SegmentDisplayNumber
  78  0000              #line 78 "e:\projects\5_tester_remote_controller\code\v1\tester_remote_controller\TESTER_REMOTE_CONTROLLER.c"
  78  0000              @HCCINIT_SegmentDisplayNumber .section 'data'
  78  0000              _SegmentDisplayNumber label byte
  78  0000              #pragma debug variable 12 1 _SegmentDisplayNumber "SegmentDisplayNumber"
  78  0000              	db 0
  78  0002              @ROMDATA_BASE .section inpage 'code'
  78  0002              	db 0
  78  0001              @HCCINIT_SegmentDisplayNumber .section 'data'
  78  0001              	db 0
  78  0002              @ROMDATA_BASE .section inpage 'code'
  78  0002              	db 0
  78  0002              @HCCINIT_SegmentDisplayNumber .section 'data'
  78  0002              public _testSampleSegmentDisplay
  77  0002              #line 77 "e:\projects\5_tester_remote_controller\code\v1\tester_remote_controller\TESTER_REMOTE_CONTROLLER.c"
  77  0000              @HCCINIT_testSampleSegmentDisplay .section 'data'
  77  0000              _testSampleSegmentDisplay label byte
  77  0000              #pragma debug variable 12 1 _testSampleSegmentDisplay "testSampleSegmentDisplay"
  77  0000              	dw 2388
  77  0003              @ROMDATA_BASE .section inpage 'code'
  77  0003  0954        	dc 2388
  77  0002              @HCCINIT_testSampleSegmentDisplay .section 'data'
  77  0002              public _receiveDataShifter
  76  0002              #line 76 "e:\projects\5_tester_remote_controller\code\v1\tester_remote_controller\TESTER_REMOTE_CONTROLLER.c"
  76  0000              @HCCINIT_receiveDataShifter .section 'data'
  76  0000              _receiveDataShifter label byte
  76  0000              #pragma debug variable 8 1 _receiveDataShifter "receiveDataShifter"
  76  0000              	db 23
  76  0004              @ROMDATA_BASE .section inpage 'code'
  76  0004              	db 23
  76  0001              @HCCINIT_receiveDataShifter .section 'data'
  76  0001              public _shiftData
  75  0001              #line 75 "e:\projects\5_tester_remote_controller\code\v1\tester_remote_controller\TESTER_REMOTE_CONTROLLER.c"
  75  0000              @HCCINIT_shiftData .section 'data'
  75  0000              _shiftData label byte
  75  0000              #pragma debug variable 14 1 _shiftData "shiftData"
  75  0000              	db 0
  75  0004              @ROMDATA_BASE .section inpage 'code'
  75  0004              	db 0
  75  0001              @HCCINIT_shiftData .section 'data'
  75  0001              	db 0
  75  0005              @ROMDATA_BASE .section inpage 'code'
  75  0005              	db 0
  75  0002              @HCCINIT_shiftData .section 'data'
  75  0002              	db 0
  75  0005              @ROMDATA_BASE .section inpage 'code'
  75  0005              	db 0
  75  0003              @HCCINIT_shiftData .section 'data'
"File: TESTER_REMOTE_CONTROLLER.c  Assembler  Version HGASM0202      Page 21

  75  0003              	db 0
  75  0006              @ROMDATA_BASE .section inpage 'code'
  75  0006              	db 0
  75  0004              @HCCINIT_shiftData .section 'data'
  75  0004              public _receiveData
  74  0004              #line 74 "e:\projects\5_tester_remote_controller\code\v1\tester_remote_controller\TESTER_REMOTE_CONTROLLER.c"
  74  0000              @HCCINIT_receiveData .section 'data'
  74  0000              _receiveData label byte
  74  0000              #pragma debug variable 14 1 _receiveData "receiveData"
  74  0000              	db 0
  74  0006              @ROMDATA_BASE .section inpage 'code'
  74  0006              	db 0
  74  0001              @HCCINIT_receiveData .section 'data'
  74  0001              	db 0
  74  0007              @ROMDATA_BASE .section inpage 'code'
  74  0007              	db 0
  74  0002              @HCCINIT_receiveData .section 'data'
  74  0002              	db 0
  74  0007              @ROMDATA_BASE .section inpage 'code'
  74  0007              	db 0
  74  0003              @HCCINIT_receiveData .section 'data'
  74  0003              	db 0
  74  0008              @ROMDATA_BASE .section inpage 'code'
  74  0008              	db 0
  74  0004              @HCCINIT_receiveData .section 'data'
  74  0004              public _receiveBitCount
  73  0004              #line 73 "e:\projects\5_tester_remote_controller\code\v1\tester_remote_controller\TESTER_REMOTE_CONTROLLER.c"
  73  0000              @HCCINIT_receiveBitCount .section 'data'
  73  0000              _receiveBitCount label byte
  73  0000              #pragma debug variable 8 1 _receiveBitCount "receiveBitCount"
  73  0000              	db 0
  73  0008              @ROMDATA_BASE .section inpage 'code'
  73  0008              	db 0
  73  0001              @HCCINIT_receiveBitCount .section 'data'
  73  0001              public _segDisplaynumFin
  72  0001              #line 72 "e:\projects\5_tester_remote_controller\code\v1\tester_remote_controller\TESTER_REMOTE_CONTROLLER.c"
  72  0000              @HCCINIT_segDisplaynumFin .section 'data'
  72  0000              _segDisplaynumFin label byte
  72  0000              #pragma debug variable 8 1 _segDisplaynumFin "segDisplaynumFin"
  72  0000              	db 0
  72  0009              @ROMDATA_BASE .section inpage 'code'
  72  0009              	db 0
  72  0001              @HCCINIT_segDisplaynumFin .section 'data'
  72  0001              public _segDisplaynum
  71  0001              #line 71 "e:\projects\5_tester_remote_controller\code\v1\tester_remote_controller\TESTER_REMOTE_CONTROLLER.c"
  71  0000              @HCCINIT_segDisplaynum .section 'data'
  71  0000              _segDisplaynum label byte
  71  0000              #pragma debug variable 12 1 _segDisplaynum "segDisplaynum"
  71  0000              	db 0
  71  0009              @ROMDATA_BASE .section inpage 'code'
  71  0009              	db 0
  71  0001              @HCCINIT_segDisplaynum .section 'data'
  71  0001              	db 0
  71  000A              @ROMDATA_BASE .section inpage 'code'
  71  000A              	db 0
  71  0002              @HCCINIT_segDisplaynum .section 'data'
  71  0002              public _segCountBit
  70  0002              #line 70 "e:\projects\5_tester_remote_controller\code\v1\tester_remote_controller\TESTER_REMOTE_CONTROLLER.c"
  70  0000              @HCCINIT_segCountBit .section 'data'
  70  0000              _segCountBit label byte
"File: TESTER_REMOTE_CONTROLLER.c  Assembler  Version HGASM0202      Page 22

  70  0000              #pragma debug variable 8 1 _segCountBit "segCountBit"
  70  0000              	db 0
  70  000A              @ROMDATA_BASE .section inpage 'code'
  70  000A              	db 0
  70  0001              @HCCINIT_segCountBit .section 'data'
  70  0001              public _rSegmentDispla
  69  0001              #line 69 "e:\projects\5_tester_remote_controller\code\v1\tester_remote_controller\TESTER_REMOTE_CONTROLLER.c"
  69  0000              @HCCINIT_rSegmentDispla .section 'data'
  69  0000              _rSegmentDispla label byte
  69  0000              #pragma debug variable 8 1 _rSegmentDispla "rSegmentDispla"
  69  0000              	db 0
  69  000B              @ROMDATA_BASE .section inpage 'code'
  69  000B              	db 0
  69  0001              @HCCINIT_rSegmentDispla .section 'data'
  69  0001              public _rCountTask
  67  0001              #line 67 "e:\projects\5_tester_remote_controller\code\v1\tester_remote_controller\TESTER_REMOTE_CONTROLLER.c"
  67  0000              @HCCINIT_rCountTask .section 'data'
  67  0000              _rCountTask label byte
  67  0000              #pragma debug variable 12 1 _rCountTask "rCountTask"
  67  0000              	db 0
  67  000B              @ROMDATA_BASE .section inpage 'code'
  67  000B              	db 0
  67  0001              @HCCINIT_rCountTask .section 'data'
  67  0001              	db 0
  67  000C              @ROMDATA_BASE .section inpage 'code'
  67  000C              	db 0
  67  0002              @HCCINIT_rCountTask .section 'data'
  65  0002              #line 65 "e:\projects\5_tester_remote_controller\code\v1\tester_remote_controller\TESTER_REMOTE_CONTROLLER.c"
  65  0002              public _rTaskflag1
  65  0000              @HCCINIT0_rTaskflag1 .section 'data'
  65  0000              _rTaskflag1	db 0
  65  0001              #pragma debug struct_end
  65  0001              #pragma debug struct_end
  65  0001              #pragma debug union_end
  65  0001              #pragma debug union_end
  65  0001              #pragma debug variable 45 1 _rTaskflag1 "rTaskflag1"
  65  0001              
  65  0000              @HCCINIT .section 'data'
  64  0000              #line 64 "e:\projects\5_tester_remote_controller\code\v1\tester_remote_controller\TESTER_REMOTE_CONTROLLER.c"
  64  0000              public _rTaskflag
  64  0000              @HCCINIT0_rTaskflag .section 'data'
  64  0000              _rTaskflag	db 0
  64  0001              #pragma debug variable 45 1 _rTaskflag "rTaskflag"
  64  0001              
  64  0000              @HCCINIT .section 'data'
  64  0000              #pragma debug struct_end
  64  0000              #pragma debug struct_end
  64  0000              #pragma debug union_end
  64  0000              #pragma debug union_end
  64  0000              #pragma debug variable 47 1 ___intc0 "__intc0" 1
  64  0000              #pragma debug struct_end
  64  0000              #pragma debug struct_end
  64  0000              #pragma debug union_end
  64  0000              #pragma debug union_end
  64  0000              #pragma debug variable 49 1 ___intc1 "__intc1" 1
  64  0000              #pragma debug struct_end
  64  0000              #pragma debug struct_end
  64  0000              #pragma debug union_end
  64  0000              #pragma debug union_end
  64  0000              #pragma debug variable 51 1 ___pa "__pa" 1
"File: TESTER_REMOTE_CONTROLLER.c  Assembler  Version HGASM0202      Page 23

  64  0000              #pragma debug struct_end
  64  0000              #pragma debug struct_end
  64  0000              #pragma debug union_end
  64  0000              #pragma debug union_end
  64  0000              #pragma debug variable 53 1 ___pac "__pac" 1
  64  0000              #pragma debug struct_end
  64  0000              #pragma debug struct_end
  64  0000              #pragma debug union_end
  64  0000              #pragma debug union_end
  64  0000              #pragma debug variable 55 1 ___pb "__pb" 1
  64  0000              #pragma debug struct_end
  64  0000              #pragma debug struct_end
  64  0000              #pragma debug union_end
  64  0000              #pragma debug union_end
  64  0000              #pragma debug variable 57 1 ___pbc "__pbc" 1
  64  0000              #pragma debug struct_end
  64  0000              #pragma debug struct_end
  64  0000              #pragma debug union_end
  64  0000              #pragma debug union_end
  64  0000              #pragma debug variable 59 1 ___scc "__scc" 1
  64  0000              #pragma debug struct_end
  64  0000              #pragma debug struct_end
  64  0000              #pragma debug union_end
  64  0000              #pragma debug union_end
  64  0000              #pragma debug variable 61 1 ___hircc "__hircc" 1
  64  0000              #pragma debug struct_end
  64  0000              #pragma debug struct_end
  64  0000              #pragma debug union_end
  64  0000              #pragma debug union_end
  64  0000              #pragma debug variable 63 1 ___wdtc "__wdtc" 1
  64  0000              #pragma debug struct_end
  64  0000              #pragma debug struct_end
  64  0000              #pragma debug union_end
  64  0000              #pragma debug union_end
  64  0000              #pragma debug variable 65 1 ___pc "__pc" 1
  64  0000              #pragma debug struct_end
  64  0000              #pragma debug struct_end
  64  0000              #pragma debug union_end
  64  0000              #pragma debug union_end
  64  0000              #pragma debug variable 67 1 ___pcc "__pcc" 1
  64  0000              #pragma debug struct_end
  64  0000              #pragma debug struct_end
  64  0000              #pragma debug union_end
  64  0000              #pragma debug union_end
  64  0000              #pragma debug variable 69 1 ___mfi0 "__mfi0" 1
  64  0000              #pragma debug struct_end
  64  0000              #pragma debug struct_end
  64  0000              #pragma debug union_end
  64  0000              #pragma debug union_end
  64  0000              #pragma debug variable 71 1 ___mfi1 "__mfi1" 1
  64  0000              #pragma debug struct_end
  64  0000              #pragma debug struct_end
  64  0000              #pragma debug union_end
  64  0000              #pragma debug union_end
  64  0000              #pragma debug variable 73 1 ___ctm0c0 "__ctm0c0" 1
  64  0000              #pragma debug struct_end
  64  0000              #pragma debug struct_end
  64  0000              #pragma debug union_end
  64  0000              #pragma debug union_end
  64  0000              #pragma debug variable 75 1 ___ctm0c1 "__ctm0c1" 1
"File: TESTER_REMOTE_CONTROLLER.c  Assembler  Version HGASM0202      Page 24

  64  0000              #pragma debug variable 8 1 ___ctm0al "__ctm0al" 1
  64  0000              #pragma debug variable 8 1 ___ctm0ah "__ctm0ah" 1
  64  0000              #pragma debug struct_end
  64  0000              #pragma debug struct_end
  64  0000              #pragma debug union_end
  64  0000              #pragma debug union_end
  64  0000              #pragma debug variable 77 1 ___ctm1c0 "__ctm1c0" 1
  64  0000              #pragma debug struct_end
  64  0000              #pragma debug struct_end
  64  0000              #pragma debug union_end
  64  0000              #pragma debug union_end
  64  0000              #pragma debug variable 79 1 ___ctm1c1 "__ctm1c1" 1
  64  0000              #pragma debug variable 8 1 ___ctm1al "__ctm1al" 1
  64  0000              #pragma debug variable 8 1 ___ctm1ah "__ctm1ah" 1
  64  0000              #pragma debug struct_end
  64  0000              #pragma debug struct_end
  64  0000              #pragma debug union_end
  64  0000              #pragma debug union_end
  64  0000              #pragma debug variable 81 1 ___pe "__pe" 1
  64  0000              #pragma debug struct_end
  64  0000              #pragma debug struct_end
  64  0000              #pragma debug union_end
  64  0000              #pragma debug union_end
  64  0000              #pragma debug variable 83 1 ___pec "__pec" 1
  64  0000              extern r1:byte
  64  0000              extern r2:byte
  64  0000              extern r3:byte
  64  0000              extern r4:byte
 121  0000              #line 121 "e:\projects\5_tester_remote_controller\code\v1\tester_remote_controller\TESTER_REMOTE_CONTROLLER.c"
 121  0000              @code .section at 0 'code'
 121  0000  2800     R  	jmp _main_startup1
 121  0001              
 121  0001              
 121  0001              ; 
 121  0001              ; Generated by holtek-gcc v3.19, Mon Aug 14 12:16:35 2023
 121  0001              ; Rebuild 718
 121  0001              ; end of file


        0 Errors, 0