"File: TESTER_REMOTE_CONTROLLER_02.c  Assembler  Version HGASM0202      Page 1


   1  0000              ; Generated by holtek-gcc v3.19, Tue Aug 22 12:24:52 2023
   2  0000              ; 
   3  0000              ; Configuration:
   4  0000              ;       with long instruction
   5  0000              ;       Single ROM, Multi-RAM
   6  0000              ;       bits_per_rom_unit:16
   7  0000              ;       with mp1
   8  0000              ;       with tbhp, address(0x9)
   9  0000              ;          Use tabrd-const
  10  0000              ;       
  11  0000              ; SFR address of long-instruction arch:
  12  0000              ;    mp0 = -1,1,0
  13  0000              ;    mp1 = 4,3,2
  14  0000              ;    mp2 = 14,13,12
  15  0000              ;    tbp = 9,7,8
  16  0000              ;    acc = 5
  17  0000              ;    pcl = 6
  18  0000              ;    status = 10
  19  0000              ;    bp = 11
  20  0000              ;    intc = 16
  21  0000              ;       
  22  0000              ;       
  23  0000              ; use 'tabrdc' instead of 'tabrd'
  24  0000              ;       
  25  0000              
  26  0000              #pragma translator "holtek-gcc 4.6.4" "3.19" "build 20130711"
  27  0000              ; Rebuild 718
  28  0000              
  29  0000              ir equ [2]
  30  0000              mp equ [3]
  31  0000              sbp equ [4]
  32  0000              acc equ [5]
  33  0000              bp equ [11]
  34  0000              tblp equ [7]
  35  0000              tbhp equ [9]
  36  0000              status equ [10]
  37  0000              c equ [10].0
  38  0000              ac equ [10].1
  39  0000              z equ [10].2
  40  0000              ov equ [10].3
  41  0000              cz equ [10].6
  42  0000              sc equ [10].7
  43  0000              intc equ [16]
  44  0000              
  45  0000              extern ra:byte
  46  0000              extern rb:byte
  47  0000              extern rc:byte
  48  0000              extern rd:byte
  49  0000              extern re:byte
  50  0000              extern rf:byte
  51  0000              extern rg:byte
  52  0000              extern rh:byte
  53  0000              extern _Crom2Prom:near
  54  0000              extern _Crom2PromNext:near
  55  0000              
  56  0000              RAMBANK 0 @BITDATASEC, @BITDATASEC1
  57  0000              @HCCINIT	.section 'data'
  58  0000              @HCCINIT0	.section 'data'
  59  0000              @BITDATASEC	 .section 'data'
"File: TESTER_REMOTE_CONTROLLER_02.ASM  Assembler  Version HGASM0202      Page 2

  60  0000              @BITDATASEC1	 .section 'data'
  61  0000              
  62  0000              #pragma debug scope 1 1
  63  0000              	extern __DELAY3:near
  64  0000              	extern __DELAYX3:near
  65  0000              	extern __DELAYX6:near
  66  0000              	extern __DELAYY5:near
  67  0000              	extern __DELAYY3:near
  68  0000              	extern _builtin_holtek_delay_2:byte
  69  0000              ___mfi0 equ [42]
  70  0000              ___pb equ [24]
  71  0000              ___intc1 equ [17]
  72  0000              ___ctm0c0 equ [58]
  73  0000              ___intc0 equ [16]
  74  0000              public _TIMER0_INT_FUN
  75  0000              #pragma debug scope 2 1

 188  0000              #line 188 "e:\comp_projects\5_tester_remote_controller\code\v2\tester_remote_controller_02\TESTER_REMOTE_CONTROLLER_02.c"
 188  0000              @TIMER0_INT_FUN_code .section at 20 'code'
 188  0000              ifdef INTERRUPT_DELAY
 188  0000              	nop
 188  0000              endif
 188  0000  0080     E  	mov r1,a
 188  0001  070A        	mov a,status
 188  0002              ifndef INTERRUPT_DELAY
 188  0002  0080     E  	mov r2,a
 188  0003              endif
 188  0003  2800     R  	jmp _TIMER0_INT_FUN
 188  0004              #pragma debug scope 1 1
 188  0004              @dummy20 endp
 188  0004              #pragma debug scope 3 1
 188  0000              _TIMER0_INT_FUN .section 'code'
 188  0000              _TIMER0_INT_FUN proc
 188  0000              ifdef INTERRUPT_DELAY
 188  0000              	mov r2,a
 188  0000              endif
 188  0000  0703        	mov a,mp
 188  0001  0080     E  	mov r3,a
 188  0002  0704        	mov a,sbp
 188  0003  0080     E  	mov r4,a
 188  0004  0707        	mov a,tblp
 188  0005  0080     E  	mov r5,a
 188  0006  0709        	mov a,tbhp
 188  0007  0080     E  	mov r6,a
 190  0008              #line 190 "e:\comp_projects\5_tester_remote_controller\code\v2\tester_remote_controller_02\TESTER_REMOTE_CONTROLLER_02.c"
 190  0008  36AA        	clr [42].5
 193  0009              #line 193 "e:\comp_projects\5_tester_remote_controller\code\v2\tester_remote_controller_02\TESTER_REMOTE_CONTROLLER_02.c"
 193  0009  3B18        	snz [24].6
 193  000A  2800     R  	jmp _L2
 193  000B              #line 193 "e:\comp_projects\5_tester_remote_controller\code\v2\tester_remote_controller_02\TESTER_REMOTE_CONTROLLER_02.c"
 193  000B  0F2F        	mov a,47
 193  000C  0200     R  	sub a,_dataReceiveHelp[0]
 193  000D  380A        	snz c
 193  000E  2800     R  	jmp _L2
 194  000F              #line 194 "e:\comp_projects\5_tester_remote_controller\code\v2\tester_remote_controller_02\TESTER_REMOTE_CONTROLLER_02.c"
 194  000F  3B98        	snz [24].7
 194  0010  2800     R  	jmp _L3
 195  0011              #line 195 "e:\comp_projects\5_tester_remote_controller\code\v2\tester_remote_controller_02\TESTER_REMOTE_CONTROLLER_02.c"
 195  0011  0700     R  	mov a,_receiveDataShifter[0]
 195  0012  0080     E  	mov rb,a
"File: TESTER_REMOTE_CONTROLLER_02.c  Assembler  Version HGASM0202      Page 3

 195  0013  1F00     E  	clr rc
 195  0014  340A        	clr c
 195  0015  1A80     E  	rlc rb
 195  0016  1A80     E  	rlc rc
 195  0017  0F00     R  	mov a,low offset _receiveDataBit
 195  0018  0300     E  	add a,rb
 195  0019  0083        	mov mp,a
 195  001A  0F00     R  	mov a,high offset _receiveDataBit
 195  001B  1300     E  	adc a,rc
 195  001C  0084        	mov sbp,a
 195  001D  0F01        	mov a,1
 195  001E  0082        	mov ir,a
 195  001F  1483        	inc mp
 195  0020  0F00        	mov a,0
 195  0021  0082        	mov ir,a
 195  0022  2800     R  	jmp _L4
 195  0023              _L3:
 198  0023              #line 198 "e:\comp_projects\5_tester_remote_controller\code\v2\tester_remote_controller_02\TESTER_REMOTE_CONTROLLER_02.c"
 198  0023  0700     R  	mov a,_receiveDataShifter[0]
 198  0024  0080     E  	mov rb,a
 198  0025  1F00     E  	clr rc
 198  0026  340A        	clr c
 198  0027  1A80     E  	rlc rb
 198  0028  1A80     E  	rlc rc
 198  0029  0F00     R  	mov a,low offset _receiveDataBit
 198  002A  0300     E  	add a,rb
 198  002B  0083        	mov mp,a
 198  002C  0F00     R  	mov a,high offset _receiveDataBit
 198  002D  1300     E  	adc a,rc
 198  002E  0084        	mov sbp,a
 198  002F  1F02        	clr ir
 198  0030  1483        	inc mp
 198  0031  1F02        	clr ir
 198  0032              _L4:
 200  0032              #line 200 "e:\comp_projects\5_tester_remote_controller\code\v2\tester_remote_controller_02\TESTER_REMOTE_CONTROLLER_02.c"
 200  0032  1580     R  	dec _receiveDataShifter[0]
 200  0033              _L2:
 205  0033              #line 205 "e:\comp_projects\5_tester_remote_controller\code\v2\tester_remote_controller_02\TESTER_REMOTE_CONTROLLER_02.c"
 205  0033  0F31        	mov a,49
 205  0034  0200     R  	sub a,_dataReceiveHelp[0]
 205  0035  380A        	snz c
 205  0036  2800     R  	jmp _L5
 206  0037              #line 206 "e:\comp_projects\5_tester_remote_controller\code\v2\tester_remote_controller_02\TESTER_REMOTE_CONTROLLER_02.c"
 206  0037  1480     R  	inc _dataReceiveHelp[0]
 207  0038              #line 207 "e:\comp_projects\5_tester_remote_controller\code\v2\tester_remote_controller_02\TESTER_REMOTE_CONTROLLER_02.c"
 207  0038  1818        	rla [24]
 207  0039  1885        	rl acc
 207  003A  0E03        	and a,3
 207  003B  0080     E  	mov ra,a
 207  003C  0F01        	mov a,1
 207  003D  0480     E  	xorm a,ra
 207  003E  0F01        	mov a,1
 207  003F  0680     E  	andm a,ra
 207  0040  1900     E  	rra ra
 207  0041  1985        	rr acc
 207  0042  0EC0        	and a,0c0h
 207  0043  0080     E  	mov ra,a
 207  0044  3718        	clr [24].6
 207  0045  0700     E  	mov a,ra
 207  0046  0598        	orm a,[24]
"File: TESTER_REMOTE_CONTROLLER_02.c  Assembler  Version HGASM0202      Page 4

 208  0047              #line 208 "e:\comp_projects\5_tester_remote_controller\code\v2\tester_remote_controller_02\TESTER_REMOTE_CONTROLLER_02.c"
 208  0047  1F00     R  	clr _k[0]
 209  0048              #line 209 "e:\comp_projects\5_tester_remote_controller\code\v2\tester_remote_controller_02\TESTER_REMOTE_CONTROLLER_02.c"
 209  0048  1F00     R  	clr _stableInteger[0]
 209  0049  2800     R  	jmp _L1
 209  004A              _L5:
 212  004A              #line 212 "e:\comp_projects\5_tester_remote_controller\code\v2\tester_remote_controller_02\TESTER_REMOTE_CONTROLLER_02.c"
 212  004A  0F19        	mov a,25
 212  004B  0200     R  	sub a,_stableInteger[0]
 212  004C  380A        	snz c
 212  004D  2800     R  	jmp _L7
 213  004E              #line 213 "e:\comp_projects\5_tester_remote_controller\code\v2\tester_remote_controller_02\TESTER_REMOTE_CONTROLLER_02.c"
 213  004E  1480     R  	inc _stableInteger[0]
 214  004F              #line 214 "e:\comp_projects\5_tester_remote_controller\code\v2\tester_remote_controller_02\TESTER_REMOTE_CONTROLLER_02.c"
 214  004F  0F17        	mov a,23
 214  0050  0200     R  	sub a,_k[0]
 214  0051  380A        	snz c
 214  0052  2800     R  	jmp _L8
 215  0053              #line 215 "e:\comp_projects\5_tester_remote_controller\code\v2\tester_remote_controller_02\TESTER_REMOTE_CONTROLLER_02.c"
 215  0053  0700     R  	mov a,_k[0]
 215  0054  0080     E  	mov rb,a
 215  0055  1F00     E  	clr rc
 215  0056  340A        	clr c
 215  0057  1A80     E  	rlc rb
 215  0058  1A80     E  	rlc rc
 215  0059  0F00     R  	mov a,low offset _receiveDataBit
 215  005A  0300     E  	add a,rb
 215  005B  0083        	mov mp,a
 215  005C  0F00     R  	mov a,high offset _receiveDataBit
 215  005D  1300     E  	adc a,rc
 215  005E  0084        	mov sbp,a
 215  005F  2000     E  	call _Crom2Prom
 215  0060  0080     E  	mov rd,a
 215  0061  2000     E  	call _Crom2PromNext
 215  0062  0080     E  	mov re,a
 215  0063  0700     E  	mov a,re
 215  0064  0080     E  	mov rf,a
 215  0065  0700     E  	mov a,rd
 215  0066  0080     E  	mov re,a
 215  0067  1F05        	clr acc
 215  0068  3C00     E  	sz rf.7
 215  0069  1F85        	set acc
 215  006A  0080     E  	mov rg,a
 215  006B  0080     E  	mov rh,a
 215  006C  0700     E  	mov a,re
 215  006D  0080     E  	mov ra,a
 215  006E  0700     E  	mov a,rf
 215  006F  0080     E  	mov rb,a
 215  0070  0700     E  	mov a,rg
 215  0071  0080     E  	mov rc,a
 215  0072  0700     E  	mov a,rh
 215  0073  0080     E  	mov rd,a
 215  0074  1400     R  	inca _k[0]
 215  0075  2800     R  	jmp _LI1
 215  0076              _LI2:
 215  0076  340A        	clr c
 215  0077  1A80     E  	rlc ra
 215  0078  1A80     E  	rlc rb
 215  0079  1A80     E  	rlc rc
 215  007A  1A80     E  	rlc rd
"File: TESTER_REMOTE_CONTROLLER_02.c  Assembler  Version HGASM0202      Page 5

 215  007B              _LI1:
 215  007B  1785        	sdz acc
 215  007C  2800     R  	jmp _LI2
 215  007D  0700     E  	mov a,ra
 215  007E  0080     R  	mov _shiftData[0],a
 215  007F  0700     E  	mov a,rb
 215  0080  0080     R  	mov _shiftData[1],a
 215  0081  0700     E  	mov a,rc
 215  0082  0080     R  	mov _shiftData[2],a
 215  0083  0700     E  	mov a,rd
 215  0084  0080     R  	mov _shiftData[3],a
 216  0085              #line 216 "e:\comp_projects\5_tester_remote_controller\code\v2\tester_remote_controller_02\TESTER_REMOTE_CONTROLLER_02.c"
 216  0085  0700     R  	mov a,_shiftData[0]
 216  0086  0380     R  	addm a,_receiveData[0]
 216  0087  0700     R  	mov a,_shiftData[1]
 216  0088  1380     R  	adcm a,_receiveData[1]
 216  0089  0700     R  	mov a,_shiftData[2]
 216  008A  1380     R  	adcm a,_receiveData[2]
 216  008B  0700     R  	mov a,_shiftData[3]
 216  008C  1380     R  	adcm a,_receiveData[3]
 216  008D  2800     R  	jmp _L12
 216  008E              _L8:
 219  008E              #line 219 "e:\comp_projects\5_tester_remote_controller\code\v2\tester_remote_controller_02\TESTER_REMOTE_CONTROLLER_02.c"
 219  008E  0700     R  	mov a,_k[0]
 219  008F  0A18        	sub a,24
 219  0090  390A        	snz z
 219  0091  2800     R  	jmp _L1
 220  0092              #line 220 "e:\comp_projects\5_tester_remote_controller\code\v2\tester_remote_controller_02\TESTER_REMOTE_CONTROLLER_02.c"
 220  0092  0700     R  	mov a,_receiveData[0]
 220  0093  0080     R  	mov _segmentDisplayNumber[0],a
 220  0094  0700     R  	mov a,_receiveData[1]
 220  0095  0080     R  	mov _segmentDisplayNumber[1],a
 220  0096  0700     R  	mov a,_receiveData[2]
 220  0097  0080     R  	mov _segmentDisplayNumber[2],a
 220  0098  0700     R  	mov a,_receiveData[3]
 220  0099  0080     R  	mov _segmentDisplayNumber[3],a
 221  009A              #line 221 "e:\comp_projects\5_tester_remote_controller\code\v2\tester_remote_controller_02\TESTER_REMOTE_CONTROLLER_02.c"
 221  009A  1F00     R  	clr _receiveData[0]
 221  009B  1F00     R  	clr _receiveData[1]
 221  009C  1F00     R  	clr _receiveData[2]
 221  009D  1F00     R  	clr _receiveData[3]
 221  009E              _L12:
 222  009E              #line 222 "e:\comp_projects\5_tester_remote_controller\code\v2\tester_remote_controller_02\TESTER_REMOTE_CONTROLLER_02.c"
 222  009E  1480     R  	inc _k[0]
 222  009F  2800     R  	jmp _L1
 222  00A0              _L7:
 226  00A0              #line 226 "e:\comp_projects\5_tester_remote_controller\code\v2\tester_remote_controller_02\TESTER_REMOTE_CONTROLLER_02.c"
 226  00A0  0F17        	mov a,23
 226  00A1  0080     R  	mov _receiveDataShifter[0],a
 228  00A2              #line 228 "e:\comp_projects\5_tester_remote_controller\code\v2\tester_remote_controller_02\TESTER_REMOTE_CONTROLLER_02.c"
 228  00A2  34AA        	clr [42].1
 229  00A3              #line 229 "e:\comp_projects\5_tester_remote_controller\code\v2\tester_remote_controller_02\TESTER_REMOTE_CONTROLLER_02.c"
 229  00A3  3491        	clr [17].1
 230  00A4              #line 230 "e:\comp_projects\5_tester_remote_controller\code\v2\tester_remote_controller_02\TESTER_REMOTE_CONTROLLER_02.c"
 230  00A4  35BA        	clr [58].3
 232  00A5              #line 232 "e:\comp_projects\5_tester_remote_controller\code\v2\tester_remote_controller_02\TESTER_REMOTE_CONTROLLER_02.c"
 232  00A5  3110        	set [16].2
 232  00A6              _L1:
 232  00A6  0700     E  	mov a,r2
 232  00A7  008A        	mov status,a
"File: TESTER_REMOTE_CONTROLLER_02.c  Assembler  Version HGASM0202      Page 6

 232  00A8  0700     E  	mov a,r3
 232  00A9  0083        	mov mp,a
 232  00AA  0700     E  	mov a,r4
 232  00AB  0084        	mov sbp,a
 232  00AC  0700     E  	mov a,r5
 232  00AD  0087        	mov tblp,a
 232  00AE  0700     E  	mov a,r6
 232  00AF  0089        	mov tbhp,a
 232  00B0  1D05        	tabrdc acc
 232  00B1  0700     E  	mov a,r1
 232  00B2  0004        	reti
 232  00B3              _TIMER0_INT_FUN endp
 232  00B3              
 232  00B3              #line 232 "e:\comp_projects\5_tester_remote_controller\code\v2\tester_remote_controller_02\TESTER_REMOTE_CONTROLLER_02.c"
 232  00B3              #pragma debug scope 1 1
 232  00B3              ___mfi1 equ [43]
 232  00B3              public _TIMER1_INT_FUN
 232  00B3              #pragma debug scope 4 1
 240  00B3              #line 240 "e:\comp_projects\5_tester_remote_controller\code\v2\tester_remote_controller_02\TESTER_REMOTE_CONTROLLER_02.c"
 240  0000              @TIMER1_INT_FUN_code .section at 24 'code'
 240  0000              ifdef INTERRUPT_DELAY
 240  0000              	nop
 240  0000              endif
 240  0000  0080     E  	mov r1,a
 240  0001  070A        	mov a,status
 240  0002              ifndef INTERRUPT_DELAY
 240  0002  0080     E  	mov r2,a
 240  0003              endif
 240  0003  2800     R  	jmp _TIMER1_INT_FUN
 240  0004              #pragma debug scope 1 1
 240  0004              @dummy24 endp
 240  0004              #pragma debug scope 5 1
 240  0000              _TIMER1_INT_FUN .section 'code'
 240  0000              _TIMER1_INT_FUN proc
 240  0000              ifdef INTERRUPT_DELAY
 240  0000              	mov r2,a
 240  0000              endif
 242  0000              #line 242 "e:\comp_projects\5_tester_remote_controller\code\v2\tester_remote_controller_02\TESTER_REMOTE_CONTROLLER_02.c"
 242  0000  36AB        	clr [43].5
 244  0001              #line 244 "e:\comp_projects\5_tester_remote_controller\code\v2\tester_remote_controller_02\TESTER_REMOTE_CONTROLLER_02.c"
 244  0001  3400     R  	clr _rTaskflag[0].1
 245  0002              #line 245 "e:\comp_projects\5_tester_remote_controller\code\v2\tester_remote_controller_02\TESTER_REMOTE_CONTROLLER_02.c"
 245  0002  3000     R  	set _rTaskflag[0].0
 245  0003  0700     E  	mov a,r2
 245  0004  008A        	mov status,a
 245  0005  0700     E  	mov a,r1
 245  0006  0004        	reti
 245  0007              _TIMER1_INT_FUN endp
 245  0007              
 245  0007              #line 245 "e:\comp_projects\5_tester_remote_controller\code\v2\tester_remote_controller_02\TESTER_REMOTE_CONTROLLER_02.c"
 245  0007              #pragma debug scope 1 1
 245  0007              public _INT1_INT_FUN
 245  0007              #pragma debug scope 6 1
 251  0007              #line 251 "e:\comp_projects\5_tester_remote_controller\code\v2\tester_remote_controller_02\TESTER_REMOTE_CONTROLLER_02.c"
 251  0000              @INT1_INT_FUN_code .section at 8 'code'
 251  0000              ifdef INTERRUPT_DELAY
 251  0000              	nop
 251  0000              endif
 251  0000  0080     E  	mov r1,a
 251  0001  070A        	mov a,status
"File: TESTER_REMOTE_CONTROLLER_02.c  Assembler  Version HGASM0202      Page 7

 251  0002              ifndef INTERRUPT_DELAY
 251  0002  0080     E  	mov r2,a
 251  0003              endif
 251  0003  2800     R  	jmp _INT1_INT_FUN
 251  0004              #pragma debug scope 1 1
 251  0004              @dummy8 endp
 251  0004              #pragma debug scope 7 1
 251  0000              _INT1_INT_FUN .section 'code'
 251  0000              _INT1_INT_FUN proc
 251  0000              ifdef INTERRUPT_DELAY
 251  0000              	mov r2,a
 251  0000              endif
 253  0000              #line 253 "e:\comp_projects\5_tester_remote_controller\code\v2\tester_remote_controller_02\TESTER_REMOTE_CONTROLLER_02.c"
 253  0000  3800     R  	snz _rTaskflag[0].5
 253  0001  2800     R  	jmp _L16
 257  0002              #line 257 "e:\comp_projects\5_tester_remote_controller\code\v2\tester_remote_controller_02\TESTER_REMOTE_CONTROLLER_02.c"
 257  0002  30AA        	set [42].1
 258  0003              #line 258 "e:\comp_projects\5_tester_remote_controller\code\v2\tester_remote_controller_02\TESTER_REMOTE_CONTROLLER_02.c"
 258  0003  3091        	set [17].1
 259  0004              #line 259 "e:\comp_projects\5_tester_remote_controller\code\v2\tester_remote_controller_02\TESTER_REMOTE_CONTROLLER_02.c"
 259  0004  31BA        	set [58].3
 262  0005              #line 262 "e:\comp_projects\5_tester_remote_controller\code\v2\tester_remote_controller_02\TESTER_REMOTE_CONTROLLER_02.c"
 262  0005  3510        	clr [16].2
 264  0006              #line 264 "e:\comp_projects\5_tester_remote_controller\code\v2\tester_remote_controller_02\TESTER_REMOTE_CONTROLLER_02.c"
 264  0006  1F00     R  	clr _dataReceiveHelp[0]
 264  0007              _L16:
 266  0007              #line 266 "e:\comp_projects\5_tester_remote_controller\code\v2\tester_remote_controller_02\TESTER_REMOTE_CONTROLLER_02.c"
 266  0007  1100     R  	swapa _rTaskflag[0]
 266  0008  1985        	rr acc
 266  0009  0E07        	and a,07h
 266  000A  0080     E  	mov ra,a
 266  000B  0F01        	mov a,1
 266  000C  0480     E  	xorm a,ra
 266  000D  0F01        	mov a,1
 266  000E  0680     E  	andm a,ra
 266  000F  1100     E  	swapa ra
 266  0010  1885        	rl acc
 266  0011  0EE0        	and a,0e0h
 266  0012  0080     E  	mov ra,a
 266  0013  3400     R  	clr _rTaskflag[0].5
 266  0014  0700     E  	mov a,ra
 266  0015  0580     R  	orm a,_rTaskflag[0]
 266  0016  0700     E  	mov a,r2
 266  0017  008A        	mov status,a
 266  0018  0700     E  	mov a,r1
 266  0019  0004        	reti
 266  001A              _INT1_INT_FUN endp
 266  001A              
 266  001A              #line 266 "e:\comp_projects\5_tester_remote_controller\code\v2\tester_remote_controller_02\TESTER_REMOTE_CONTROLLER_02.c"
 266  001A              #pragma debug scope 1 1
 266  001A              ___scc equ [28]
 266  001A              ___hircc equ [29]
 266  001A              ___wdtc equ [34]
 266  001A              ___ctm0c1 equ [59]
 266  001A              ___ctm0al equ [62]
 266  001A              ___ctm0ah equ [63]
 266  001A              ___ctm1c0 equ [100]
 266  001A              ___ctm1c1 equ [101]
 266  001A              ___ctm1al equ [104]
 266  001A              ___ctm1ah equ [105]
"File: TESTER_REMOTE_CONTROLLER_02.c  Assembler  Version HGASM0202      Page 8

 266  001A              ___integ equ [27]
 266  001A              ___pac equ [21]
 266  001A              ___pa equ [20]
 266  001A              ___pbc equ [25]
 266  001A              ___pcc equ [37]
 266  001A              ___pc equ [36]
 266  001A              ___pec equ [113]
 266  001A              ___pe equ [112]
 266  001A              public _initializeHardware
 266  001A              #pragma debug scope 8 1
 271  001A              #line 271 "e:\comp_projects\5_tester_remote_controller\code\v2\tester_remote_controller_02\TESTER_REMOTE_CONTROLLER_02.c"
 271  0000              _initializeHardware .section 'code'
 271  0000              _initializeHardware proc
 273  0000              #line 273 "e:\comp_projects\5_tester_remote_controller\code\v2\tester_remote_controller_02\TESTER_REMOTE_CONTROLLER_02.c"
 273  0000  1F1C        	clr [28]
 274  0001              #line 274 "e:\comp_projects\5_tester_remote_controller\code\v2\tester_remote_controller_02\TESTER_REMOTE_CONTROLLER_02.c"
 274  0001  0F01        	mov a,1
 274  0002  009D        	mov [29],a
 277  0003              #line 277 "e:\comp_projects\5_tester_remote_controller\code\v2\tester_remote_controller_02\TESTER_REMOTE_CONTROLLER_02.c"
 277  0003  0FAD        	mov a,173
 277  0004  00A2        	mov [34],a
 280  0005              #line 280 "e:\comp_projects\5_tester_remote_controller\code\v2\tester_remote_controller_02\TESTER_REMOTE_CONTROLLER_02.c"
 280  0005  0F20        	mov a,32
 280  0006  00BA        	mov [58],a
 281  0007              #line 281 "e:\comp_projects\5_tester_remote_controller\code\v2\tester_remote_controller_02\TESTER_REMOTE_CONTROLLER_02.c"
 281  0007  0FC1        	mov a,193
 281  0008  00BB        	mov [59],a
 283  0009              #line 283 "e:\comp_projects\5_tester_remote_controller\code\v2\tester_remote_controller_02\TESTER_REMOTE_CONTROLLER_02.c"
 283  0009  0F0F        	mov a,15
 283  000A  00BE        	mov [62],a
 284  000B              #line 284 "e:\comp_projects\5_tester_remote_controller\code\v2\tester_remote_controller_02\TESTER_REMOTE_CONTROLLER_02.c"
 284  000B  1F3F        	clr [63]
 287  000C              #line 287 "e:\comp_projects\5_tester_remote_controller\code\v2\tester_remote_controller_02\TESTER_REMOTE_CONTROLLER_02.c"
 287  000C  0F38        	mov a,56
 287  000D  00E4        	mov [100],a
 288  000E              #line 288 "e:\comp_projects\5_tester_remote_controller\code\v2\tester_remote_controller_02\TESTER_REMOTE_CONTROLLER_02.c"
 288  000E  0FC1        	mov a,193
 288  000F  00E5        	mov [101],a
 290  0010              #line 290 "e:\comp_projects\5_tester_remote_controller\code\v2\tester_remote_controller_02\TESTER_REMOTE_CONTROLLER_02.c"
 290  0010  0FFA        	mov a,250
 290  0011  00E8        	mov [104],a
 291  0012              #line 291 "e:\comp_projects\5_tester_remote_controller\code\v2\tester_remote_controller_02\TESTER_REMOTE_CONTROLLER_02.c"
 291  0012  1F69        	clr [105]
 294  0013              #line 294 "e:\comp_projects\5_tester_remote_controller\code\v2\tester_remote_controller_02\TESTER_REMOTE_CONTROLLER_02.c"
 294  0013  1F2A        	clr [42]
 295  0014              #line 295 "e:\comp_projects\5_tester_remote_controller\code\v2\tester_remote_controller_02\TESTER_REMOTE_CONTROLLER_02.c"
 295  0014  0F02        	mov a,2
 295  0015  00AB        	mov [43],a
 296  0016              #line 296 "e:\comp_projects\5_tester_remote_controller\code\v2\tester_remote_controller_02\TESTER_REMOTE_CONTROLLER_02.c"
 296  0016  0F04        	mov a,4
 296  0017  0091        	mov [17],a
 297  0018              #line 297 "e:\comp_projects\5_tester_remote_controller\code\v2\tester_remote_controller_02\TESTER_REMOTE_CONTROLLER_02.c"
 297  0018  0F04        	mov a,4
 297  0019  0090        	mov [16],a
 299  001A              #line 299 "e:\comp_projects\5_tester_remote_controller\code\v2\tester_remote_controller_02\TESTER_REMOTE_CONTROLLER_02.c"
 299  001A  0F08        	mov a,8
 299  001B  009B        	mov [27],a
 304  001C              #line 304 "e:\comp_projects\5_tester_remote_controller\code\v2\tester_remote_controller_02\TESTER_REMOTE_CONTROLLER_02.c"
 304  001C  1F15        	clr [21]
 305  001D              #line 305 "e:\comp_projects\5_tester_remote_controller\code\v2\tester_remote_controller_02\TESTER_REMOTE_CONTROLLER_02.c"
"File: TESTER_REMOTE_CONTROLLER_02.c  Assembler  Version HGASM0202      Page 9

 305  001D  1F14        	clr [20]
 308  001E              #line 308 "e:\comp_projects\5_tester_remote_controller\code\v2\tester_remote_controller_02\TESTER_REMOTE_CONTROLLER_02.c"
 308  001E  0F8C        	mov a,140
 308  001F  0099        	mov [25],a
 309  0020              #line 309 "e:\comp_projects\5_tester_remote_controller\code\v2\tester_remote_controller_02\TESTER_REMOTE_CONTROLLER_02.c"
 309  0020  1F18        	clr [24]
 312  0021              #line 312 "e:\comp_projects\5_tester_remote_controller\code\v2\tester_remote_controller_02\TESTER_REMOTE_CONTROLLER_02.c"
 312  0021  1F25        	clr [37]
 313  0022              #line 313 "e:\comp_projects\5_tester_remote_controller\code\v2\tester_remote_controller_02\TESTER_REMOTE_CONTROLLER_02.c"
 313  0022  0F0F        	mov a,15
 313  0023  00A4        	mov [36],a
 316  0024              #line 316 "e:\comp_projects\5_tester_remote_controller\code\v2\tester_remote_controller_02\TESTER_REMOTE_CONTROLLER_02.c"
 316  0024  0F03        	mov a,3
 316  0025  00F1        	mov [113],a
 317  0026              #line 317 "e:\comp_projects\5_tester_remote_controller\code\v2\tester_remote_controller_02\TESTER_REMOTE_CONTROLLER_02.c"
 317  0026  1F70        	clr [112]
 317  0027  0003        	ret
 317  0028              _initializeHardware endp
 317  0028              #line 317 "e:\comp_projects\5_tester_remote_controller\code\v2\tester_remote_controller_02\TESTER_REMOTE_CONTROLLER_02.c"
 317  0028              #pragma debug scope 1 1
 317  0028              public _initializeSoftware
 317  0028              #pragma debug scope 9 1
 323  0028              #line 323 "e:\comp_projects\5_tester_remote_controller\code\v2\tester_remote_controller_02\TESTER_REMOTE_CONTROLLER_02.c"
 323  0000              _initializeSoftware .section 'code'
 323  0000              _initializeSoftware proc
 324  0000              #line 324 "e:\comp_projects\5_tester_remote_controller\code\v2\tester_remote_controller_02\TESTER_REMOTE_CONTROLLER_02.c"
 324  0000  1F00     R  	clr _rCountTask[0]
 324  0001  1F00     R  	clr _rCountTask[1]
 325  0002              #line 325 "e:\comp_projects\5_tester_remote_controller\code\v2\tester_remote_controller_02\TESTER_REMOTE_CONTROLLER_02.c"
 325  0002  1F00     R  	clr _segDigitSelect[0]
 326  0003              #line 326 "e:\comp_projects\5_tester_remote_controller\code\v2\tester_remote_controller_02\TESTER_REMOTE_CONTROLLER_02.c"
 326  0003  1F00     R  	clr _segDisplayNumPreparing[0]
 326  0004  1F00     R  	clr _segDisplayNumPreparing[1]
 326  0005  1F00     R  	clr _segDisplayNumPreparing[2]
 326  0006  1F00     R  	clr _segDisplayNumPreparing[3]
 327  0007              #line 327 "e:\comp_projects\5_tester_remote_controller\code\v2\tester_remote_controller_02\TESTER_REMOTE_CONTROLLER_02.c"
 327  0007  1F00     R  	clr _segDigitDisplayNum[0]
 328  0008              #line 328 "e:\comp_projects\5_tester_remote_controller\code\v2\tester_remote_controller_02\TESTER_REMOTE_CONTROLLER_02.c"
 328  0008  1F00     R  	clr _dataReceiveHelp[0]
 329  0009              #line 329 "e:\comp_projects\5_tester_remote_controller\code\v2\tester_remote_controller_02\TESTER_REMOTE_CONTROLLER_02.c"
 329  0009  1F00     R  	clr _receiveData[0]
 329  000A  1F00     R  	clr _receiveData[1]
 329  000B  1F00     R  	clr _receiveData[2]
 329  000C  1F00     R  	clr _receiveData[3]
 330  000D              #line 330 "e:\comp_projects\5_tester_remote_controller\code\v2\tester_remote_controller_02\TESTER_REMOTE_CONTROLLER_02.c"
 330  000D  1F00     R  	clr _shiftData[0]
 330  000E  1F00     R  	clr _shiftData[1]
 330  000F  1F00     R  	clr _shiftData[2]
 330  0010  1F00     R  	clr _shiftData[3]
 331  0011              #line 331 "e:\comp_projects\5_tester_remote_controller\code\v2\tester_remote_controller_02\TESTER_REMOTE_CONTROLLER_02.c"
 331  0011  0F17        	mov a,23
 331  0012  0080     R  	mov _receiveDataShifter[0],a
 332  0013              #line 332 "e:\comp_projects\5_tester_remote_controller\code\v2\tester_remote_controller_02\TESTER_REMOTE_CONTROLLER_02.c"
 332  0013  0FC6        	mov a,-58
 332  0014  0080     R  	mov _segmentDisplayNumber[0],a
 332  0015  0F9B        	mov a,-101
 332  0016  0080     R  	mov _segmentDisplayNumber[1],a
 332  0017  0F05        	mov a,5
 332  0018  0080     R  	mov _segmentDisplayNumber[2],a
 332  0019  1F00     R  	clr _segmentDisplayNumber[3]
"File: TESTER_REMOTE_CONTROLLER_02.c  Assembler  Version HGASM0202      Page 10

 333  001A              #line 333 "e:\comp_projects\5_tester_remote_controller\code\v2\tester_remote_controller_02\TESTER_REMOTE_CONTROLLER_02.c"
 333  001A  1F00     R  	clr _stateStepper[0]
 334  001B              #line 334 "e:\comp_projects\5_tester_remote_controller\code\v2\tester_remote_controller_02\TESTER_REMOTE_CONTROLLER_02.c"
 334  001B  1F00     R  	clr _k[0]
 335  001C              #line 335 "e:\comp_projects\5_tester_remote_controller\code\v2\tester_remote_controller_02\TESTER_REMOTE_CONTROLLER_02.c"
 335  001C  1F00     R  	clr _stableInteger[0]
 335  001D  0003        	ret
 335  001E              _initializeSoftware endp
 335  001E              #line 335 "e:\comp_projects\5_tester_remote_controller\code\v2\tester_remote_controller_02\TESTER_REMOTE_CONTROLLER_02.c"
 335  001E              #pragma debug scope 1 1
 335  001E              public _runCountTask
 335  001E              #pragma debug scope 10 1
 340  001E              #line 340 "e:\comp_projects\5_tester_remote_controller\code\v2\tester_remote_controller_02\TESTER_REMOTE_CONTROLLER_02.c"
 340  0000              _runCountTask .section 'code'
 340  0000              _runCountTask proc
 345  0000              #line 345 "e:\comp_projects\5_tester_remote_controller\code\v2\tester_remote_controller_02\TESTER_REMOTE_CONTROLLER_02.c"
 345  0000  3000     R  	set _rTaskflag[0].4
 348  0001              #line 348 "e:\comp_projects\5_tester_remote_controller\code\v2\tester_remote_controller_02\TESTER_REMOTE_CONTROLLER_02.c"
 348  0001  0700     R  	mov a,_rCountTask[0]
 348  0002  0080     E  	mov rb,a
 348  0003  0700     R  	mov a,_rCountTask[1]
 348  0004  0080     E  	mov rc,a
 348  0005  0F07        	mov a,7  
 348  0006  0680     E  	andm a,rb  
 348  0007  0F00        	mov a,0  
 348  0008  0680     E  	andm a,rc
 348  0009  0700     E  	mov a,rb
 348  000A  0500     E  	or a,rc
 348  000B  390A        	snz z
 348  000C  2800     R  	jmp _L23
 349  000D              #line 349 "e:\comp_projects\5_tester_remote_controller\code\v2\tester_remote_controller_02\TESTER_REMOTE_CONTROLLER_02.c"
 349  000D  3D18        	sz [24].2
 349  000E  2800     R  	jmp _L24
 350  000F              #line 350 "e:\comp_projects\5_tester_remote_controller\code\v2\tester_remote_controller_02\TESTER_REMOTE_CONTROLLER_02.c"
 350  000F  3000     R  	set _rTaskflag1[0].0
 350  0010  2800     R  	jmp _L23
 350  0011              _L24:
 352  0011              #line 352 "e:\comp_projects\5_tester_remote_controller\code\v2\tester_remote_controller_02\TESTER_REMOTE_CONTROLLER_02.c"
 352  0011  3998        	snz [24].3
 352  0012  2800     R  	jmp _L23
 353  0013              #line 353 "e:\comp_projects\5_tester_remote_controller\code\v2\tester_remote_controller_02\TESTER_REMOTE_CONTROLLER_02.c"
 353  0013  36F0        	clr [112].5
 354  0014              #line 354 "e:\comp_projects\5_tester_remote_controller\code\v2\tester_remote_controller_02\TESTER_REMOTE_CONTROLLER_02.c"
 354  0014  3670        	clr [112].4
 355  0015              #line 355 "e:\comp_projects\5_tester_remote_controller\code\v2\tester_remote_controller_02\TESTER_REMOTE_CONTROLLER_02.c"
 355  0015  35F0        	clr [112].3
 356  0016              #line 356 "e:\comp_projects\5_tester_remote_controller\code\v2\tester_remote_controller_02\TESTER_REMOTE_CONTROLLER_02.c"
 356  0016  3570        	clr [112].2
 356  0017              _L23:
 360  0017              #line 360 "e:\comp_projects\5_tester_remote_controller\code\v2\tester_remote_controller_02\TESTER_REMOTE_CONTROLLER_02.c"
 360  0017  0700     R  	mov a,_rCountTask[0]
 360  0018  0080     E  	mov rb,a
 360  0019  0700     R  	mov a,_rCountTask[1]
 360  001A  0080     E  	mov rc,a
 360  001B  0F07        	mov a,7  
 360  001C  0680     E  	andm a,rb  
 360  001D  0F00        	mov a,0  
 360  001E  0680     E  	andm a,rc
 360  001F  0700     E  	mov a,rb
 360  0020  0500     E  	or a,rc
"File: TESTER_REMOTE_CONTROLLER_02.c  Assembler  Version HGASM0202      Page 11

 360  0021  390A        	snz z
 360  0022  2800     R  	jmp _L25
 361  0023              #line 361 "e:\comp_projects\5_tester_remote_controller\code\v2\tester_remote_controller_02\TESTER_REMOTE_CONTROLLER_02.c"
 361  0023  3D98        	sz [24].3
 361  0024  2800     R  	jmp _L26
 362  0025              #line 362 "e:\comp_projects\5_tester_remote_controller\code\v2\tester_remote_controller_02\TESTER_REMOTE_CONTROLLER_02.c"
 362  0025  3000     R  	set _rTaskflag1[0].1
 362  0026  2800     R  	jmp _L25
 362  0027              _L26:
 364  0027              #line 364 "e:\comp_projects\5_tester_remote_controller\code\v2\tester_remote_controller_02\TESTER_REMOTE_CONTROLLER_02.c"
 364  0027  3918        	snz [24].2
 364  0028  2800     R  	jmp _L25
 365  0029              #line 365 "e:\comp_projects\5_tester_remote_controller\code\v2\tester_remote_controller_02\TESTER_REMOTE_CONTROLLER_02.c"
 365  0029  36F0        	clr [112].5
 366  002A              #line 366 "e:\comp_projects\5_tester_remote_controller\code\v2\tester_remote_controller_02\TESTER_REMOTE_CONTROLLER_02.c"
 366  002A  3670        	clr [112].4
 367  002B              #line 367 "e:\comp_projects\5_tester_remote_controller\code\v2\tester_remote_controller_02\TESTER_REMOTE_CONTROLLER_02.c"
 367  002B  35F0        	clr [112].3
 368  002C              #line 368 "e:\comp_projects\5_tester_remote_controller\code\v2\tester_remote_controller_02\TESTER_REMOTE_CONTROLLER_02.c"
 368  002C  3570        	clr [112].2
 368  002D              _L25:
 372  002D              #line 372 "e:\comp_projects\5_tester_remote_controller\code\v2\tester_remote_controller_02\TESTER_REMOTE_CONTROLLER_02.c"
 372  002D  3000     R  	set _rTaskflag[0].2
 374  002E              #line 374 "e:\comp_projects\5_tester_remote_controller\code\v2\tester_remote_controller_02\TESTER_REMOTE_CONTROLLER_02.c"
 374  002E  0FF6        	mov a,246
 374  002F  0200     R  	sub a,_rCountTask[0]
 374  0030  0F00        	mov a,0
 374  0031  1200     R  	sbc a,_rCountTask[1]
 374  0032  380A        	snz c
 374  0033  2800     R  	jmp _L27
 375  0034              #line 375 "e:\comp_projects\5_tester_remote_controller\code\v2\tester_remote_controller_02\TESTER_REMOTE_CONTROLLER_02.c"
 375  0034  1480     R  	inc _rCountTask[0]
 375  0035  3D0A        	sz z
 375  0036  1480     R  	inc _rCountTask[1]
 375  0037  2800     R  	jmp _L22
 375  0038              _L27:
 378  0038              #line 378 "e:\comp_projects\5_tester_remote_controller\code\v2\tester_remote_controller_02\TESTER_REMOTE_CONTROLLER_02.c"
 378  0038  1F00     R  	clr _rCountTask[0]
 378  0039  1F00     R  	clr _rCountTask[1]
 379  003A              #line 379 "e:\comp_projects\5_tester_remote_controller\code\v2\tester_remote_controller_02\TESTER_REMOTE_CONTROLLER_02.c"
 379  003A  3400     R  	clr _rTaskflag[0].3
 379  003B              _L22:
 379  003B  0003        	ret
 379  003C              _runCountTask endp
 379  003C              #line 379 "e:\comp_projects\5_tester_remote_controller\code\v2\tester_remote_controller_02\TESTER_REMOTE_CONTROLLER_02.c"
 379  003C              #pragma debug scope 1 1
 379  003C              public _stepperUp
 379  003C              #pragma debug scope 11 1
 401  003C              #line 401 "e:\comp_projects\5_tester_remote_controller\code\v2\tester_remote_controller_02\TESTER_REMOTE_CONTROLLER_02.c"
 401  0000              _stepperUp .section 'code'
 401  0000              _stepperUp proc
 401  0000  00              local _stepperUp_2 db 1 dup(?)	; 0,1
 403  0001              #line 403 "e:\comp_projects\5_tester_remote_controller\code\v2\tester_remote_controller_02\TESTER_REMOTE_CONTROLLER_02.c"
 403  0000  0700     R  	mov a,_stateStepper[0]
 403  0001  0080     R  	mov _stepperUp_2[0],a
 403  0002  0700     R  	mov a,_stepperUp_2[0]
 403  0003  0A00        	sub a,0
 403  0004  3D0A        	sz z
 403  0005  2800     R  	jmp _L37
 403  0006  0A01        	sub a,(1)-(0)
"File: TESTER_REMOTE_CONTROLLER_02.c  Assembler  Version HGASM0202      Page 12

 403  0007  3D0A        	sz z
 403  0008  2800     R  	jmp _L38
 403  0009              #line 403 "e:\comp_projects\5_tester_remote_controller\code\v2\tester_remote_controller_02\TESTER_REMOTE_CONTROLLER_02.c"
 403  0009  0700     R  	mov a,_stepperUp_2[0]
 403  000A  0A02        	sub a,2
 403  000B  3D0A        	sz z
 403  000C  2800     R  	jmp _L39
 403  000D  0700     R  	mov a,_stepperUp_2[0]
 403  000E  0A03        	sub a,3
 403  000F  390A        	snz z
 403  0010  2800     R  	jmp _L35
 428  0011              #line 428 "e:\comp_projects\5_tester_remote_controller\code\v2\tester_remote_controller_02\TESTER_REMOTE_CONTROLLER_02.c"
 428  0011  36F0        	clr [112].5
 429  0012              #line 429 "e:\comp_projects\5_tester_remote_controller\code\v2\tester_remote_controller_02\TESTER_REMOTE_CONTROLLER_02.c"
 429  0012  35F0        	clr [112].3
 430  0013              #line 430 "e:\comp_projects\5_tester_remote_controller\code\v2\tester_remote_controller_02\TESTER_REMOTE_CONTROLLER_02.c"
 430  0013  3270        	set [112].4
 431  0014              #line 431 "e:\comp_projects\5_tester_remote_controller\code\v2\tester_remote_controller_02\TESTER_REMOTE_CONTROLLER_02.c"
 431  0014  3170        	set [112].2
 432  0015              #line 432 "e:\comp_projects\5_tester_remote_controller\code\v2\tester_remote_controller_02\TESTER_REMOTE_CONTROLLER_02.c"
 432  0015  1F00     R  	clr _stateStepper[0]
 433  0016              #line 433 "e:\comp_projects\5_tester_remote_controller\code\v2\tester_remote_controller_02\TESTER_REMOTE_CONTROLLER_02.c"
 433  0016  2800     R  	jmp _L35
 433  0017              _L37:
 405  0017              #line 405 "e:\comp_projects\5_tester_remote_controller\code\v2\tester_remote_controller_02\TESTER_REMOTE_CONTROLLER_02.c"
 405  0017  3670        	clr [112].4
 406  0018              #line 406 "e:\comp_projects\5_tester_remote_controller\code\v2\tester_remote_controller_02\TESTER_REMOTE_CONTROLLER_02.c"
 406  0018  35F0        	clr [112].3
 407  0019              #line 407 "e:\comp_projects\5_tester_remote_controller\code\v2\tester_remote_controller_02\TESTER_REMOTE_CONTROLLER_02.c"
 407  0019  32F0        	set [112].5
 408  001A              #line 408 "e:\comp_projects\5_tester_remote_controller\code\v2\tester_remote_controller_02\TESTER_REMOTE_CONTROLLER_02.c"
 408  001A  3170        	set [112].2
 409  001B              #line 409 "e:\comp_projects\5_tester_remote_controller\code\v2\tester_remote_controller_02\TESTER_REMOTE_CONTROLLER_02.c"
 409  001B  0F01        	mov a,1
 409  001C  0080     R  	mov _stateStepper[0],a
 410  001D              #line 410 "e:\comp_projects\5_tester_remote_controller\code\v2\tester_remote_controller_02\TESTER_REMOTE_CONTROLLER_02.c"
 410  001D  2800     R  	jmp _L35
 410  001E              _L38:
 413  001E              #line 413 "e:\comp_projects\5_tester_remote_controller\code\v2\tester_remote_controller_02\TESTER_REMOTE_CONTROLLER_02.c"
 413  001E  3570        	clr [112].2
 414  001F              #line 414 "e:\comp_projects\5_tester_remote_controller\code\v2\tester_remote_controller_02\TESTER_REMOTE_CONTROLLER_02.c"
 414  001F  3670        	clr [112].4
 415  0020              #line 415 "e:\comp_projects\5_tester_remote_controller\code\v2\tester_remote_controller_02\TESTER_REMOTE_CONTROLLER_02.c"
 415  0020  32F0        	set [112].5
 416  0021              #line 416 "e:\comp_projects\5_tester_remote_controller\code\v2\tester_remote_controller_02\TESTER_REMOTE_CONTROLLER_02.c"
 416  0021  31F0        	set [112].3
 417  0022              #line 417 "e:\comp_projects\5_tester_remote_controller\code\v2\tester_remote_controller_02\TESTER_REMOTE_CONTROLLER_02.c"
 417  0022  0F02        	mov a,2
 417  0023  0080     R  	mov _stateStepper[0],a
 418  0024              #line 418 "e:\comp_projects\5_tester_remote_controller\code\v2\tester_remote_controller_02\TESTER_REMOTE_CONTROLLER_02.c"
 418  0024  2800     R  	jmp _L35
 418  0025              _L39:
 420  0025              #line 420 "e:\comp_projects\5_tester_remote_controller\code\v2\tester_remote_controller_02\TESTER_REMOTE_CONTROLLER_02.c"
 420  0025  36F0        	clr [112].5
 421  0026              #line 421 "e:\comp_projects\5_tester_remote_controller\code\v2\tester_remote_controller_02\TESTER_REMOTE_CONTROLLER_02.c"
 421  0026  3570        	clr [112].2
 422  0027              #line 422 "e:\comp_projects\5_tester_remote_controller\code\v2\tester_remote_controller_02\TESTER_REMOTE_CONTROLLER_02.c"
 422  0027  3270        	set [112].4
 423  0028              #line 423 "e:\comp_projects\5_tester_remote_controller\code\v2\tester_remote_controller_02\TESTER_REMOTE_CONTROLLER_02.c"
 423  0028  31F0        	set [112].3
"File: TESTER_REMOTE_CONTROLLER_02.c  Assembler  Version HGASM0202      Page 13

 424  0029              #line 424 "e:\comp_projects\5_tester_remote_controller\code\v2\tester_remote_controller_02\TESTER_REMOTE_CONTROLLER_02.c"
 424  0029  0F03        	mov a,3
 424  002A  0080     R  	mov _stateStepper[0],a
 424  002B              _L35:
 424  002B  0003        	ret
 424  002C              _stepperUp endp
 424  002C              #line 424 "e:\comp_projects\5_tester_remote_controller\code\v2\tester_remote_controller_02\TESTER_REMOTE_CONTROLLER_02.c"
 424  002C              #pragma debug scope 1 1
 424  002C              public _stepperDown
 424  002C              #pragma debug scope 12 1
 437  002C              #line 437 "e:\comp_projects\5_tester_remote_controller\code\v2\tester_remote_controller_02\TESTER_REMOTE_CONTROLLER_02.c"
 437  0000              _stepperDown .section 'code'
 437  0000              _stepperDown proc
 437  0000  00              local _stepperDown_2 db 1 dup(?)	; 0,1
 439  0001              #line 439 "e:\comp_projects\5_tester_remote_controller\code\v2\tester_remote_controller_02\TESTER_REMOTE_CONTROLLER_02.c"
 439  0000  0700     R  	mov a,_stateStepper[0]
 439  0001  0080     R  	mov _stepperDown_2[0],a
 439  0002  0700     R  	mov a,_stepperDown_2[0]
 439  0003  0A00        	sub a,0
 439  0004  3D0A        	sz z
 439  0005  2800     R  	jmp _L43
 439  0006  0A01        	sub a,(1)-(0)
 439  0007  3D0A        	sz z
 439  0008  2800     R  	jmp _L44
 439  0009              #line 439 "e:\comp_projects\5_tester_remote_controller\code\v2\tester_remote_controller_02\TESTER_REMOTE_CONTROLLER_02.c"
 439  0009  0700     R  	mov a,_stepperDown_2[0]
 439  000A  0A02        	sub a,2
 439  000B  3D0A        	sz z
 439  000C  2800     R  	jmp _L45
 439  000D  0700     R  	mov a,_stepperDown_2[0]
 439  000E  0A03        	sub a,3
 439  000F  390A        	snz z
 439  0010  2800     R  	jmp _L41
 464  0011              #line 464 "e:\comp_projects\5_tester_remote_controller\code\v2\tester_remote_controller_02\TESTER_REMOTE_CONTROLLER_02.c"
 464  0011  36F0        	clr [112].5
 465  0012              #line 465 "e:\comp_projects\5_tester_remote_controller\code\v2\tester_remote_controller_02\TESTER_REMOTE_CONTROLLER_02.c"
 465  0012  35F0        	clr [112].3
 466  0013              #line 466 "e:\comp_projects\5_tester_remote_controller\code\v2\tester_remote_controller_02\TESTER_REMOTE_CONTROLLER_02.c"
 466  0013  3270        	set [112].4
 467  0014              #line 467 "e:\comp_projects\5_tester_remote_controller\code\v2\tester_remote_controller_02\TESTER_REMOTE_CONTROLLER_02.c"
 467  0014  3170        	set [112].2
 468  0015              #line 468 "e:\comp_projects\5_tester_remote_controller\code\v2\tester_remote_controller_02\TESTER_REMOTE_CONTROLLER_02.c"
 468  0015  1F00     R  	clr _stateStepper[0]
 469  0016              #line 469 "e:\comp_projects\5_tester_remote_controller\code\v2\tester_remote_controller_02\TESTER_REMOTE_CONTROLLER_02.c"
 469  0016  2800     R  	jmp _L41
 469  0017              _L43:
 441  0017              #line 441 "e:\comp_projects\5_tester_remote_controller\code\v2\tester_remote_controller_02\TESTER_REMOTE_CONTROLLER_02.c"
 441  0017  36F0        	clr [112].5
 442  0018              #line 442 "e:\comp_projects\5_tester_remote_controller\code\v2\tester_remote_controller_02\TESTER_REMOTE_CONTROLLER_02.c"
 442  0018  3570        	clr [112].2
 443  0019              #line 443 "e:\comp_projects\5_tester_remote_controller\code\v2\tester_remote_controller_02\TESTER_REMOTE_CONTROLLER_02.c"
 443  0019  3270        	set [112].4
 444  001A              #line 444 "e:\comp_projects\5_tester_remote_controller\code\v2\tester_remote_controller_02\TESTER_REMOTE_CONTROLLER_02.c"
 444  001A  31F0        	set [112].3
 445  001B              #line 445 "e:\comp_projects\5_tester_remote_controller\code\v2\tester_remote_controller_02\TESTER_REMOTE_CONTROLLER_02.c"
 445  001B  0F01        	mov a,1
 445  001C  0080     R  	mov _stateStepper[0],a
 446  001D              #line 446 "e:\comp_projects\5_tester_remote_controller\code\v2\tester_remote_controller_02\TESTER_REMOTE_CONTROLLER_02.c"
 446  001D  2800     R  	jmp _L41
 446  001E              _L44:
"File: TESTER_REMOTE_CONTROLLER_02.c  Assembler  Version HGASM0202      Page 14

 449  001E              #line 449 "e:\comp_projects\5_tester_remote_controller\code\v2\tester_remote_controller_02\TESTER_REMOTE_CONTROLLER_02.c"
 449  001E  3570        	clr [112].2
 450  001F              #line 450 "e:\comp_projects\5_tester_remote_controller\code\v2\tester_remote_controller_02\TESTER_REMOTE_CONTROLLER_02.c"
 450  001F  3670        	clr [112].4
 451  0020              #line 451 "e:\comp_projects\5_tester_remote_controller\code\v2\tester_remote_controller_02\TESTER_REMOTE_CONTROLLER_02.c"
 451  0020  32F0        	set [112].5
 452  0021              #line 452 "e:\comp_projects\5_tester_remote_controller\code\v2\tester_remote_controller_02\TESTER_REMOTE_CONTROLLER_02.c"
 452  0021  31F0        	set [112].3
 453  0022              #line 453 "e:\comp_projects\5_tester_remote_controller\code\v2\tester_remote_controller_02\TESTER_REMOTE_CONTROLLER_02.c"
 453  0022  0F02        	mov a,2
 453  0023  0080     R  	mov _stateStepper[0],a
 454  0024              #line 454 "e:\comp_projects\5_tester_remote_controller\code\v2\tester_remote_controller_02\TESTER_REMOTE_CONTROLLER_02.c"
 454  0024  2800     R  	jmp _L41
 454  0025              _L45:
 456  0025              #line 456 "e:\comp_projects\5_tester_remote_controller\code\v2\tester_remote_controller_02\TESTER_REMOTE_CONTROLLER_02.c"
 456  0025  3670        	clr [112].4
 457  0026              #line 457 "e:\comp_projects\5_tester_remote_controller\code\v2\tester_remote_controller_02\TESTER_REMOTE_CONTROLLER_02.c"
 457  0026  35F0        	clr [112].3
 458  0027              #line 458 "e:\comp_projects\5_tester_remote_controller\code\v2\tester_remote_controller_02\TESTER_REMOTE_CONTROLLER_02.c"
 458  0027  32F0        	set [112].5
 459  0028              #line 459 "e:\comp_projects\5_tester_remote_controller\code\v2\tester_remote_controller_02\TESTER_REMOTE_CONTROLLER_02.c"
 459  0028  3170        	set [112].2
 460  0029              #line 460 "e:\comp_projects\5_tester_remote_controller\code\v2\tester_remote_controller_02\TESTER_REMOTE_CONTROLLER_02.c"
 460  0029  0F03        	mov a,3
 460  002A  0080     R  	mov _stateStepper[0],a
 460  002B              _L41:
 460  002B  0003        	ret
 460  002C              _stepperDown endp
 460  002C              #line 460 "e:\comp_projects\5_tester_remote_controller\code\v2\tester_remote_controller_02\TESTER_REMOTE_CONTROLLER_02.c"
 460  002C              #pragma debug scope 1 1
 460  002C              public _fSegmentDisplay
 460  002C              #pragma debug scope 13 1
 474  002C              #line 474 "e:\comp_projects\5_tester_remote_controller\code\v2\tester_remote_controller_02\TESTER_REMOTE_CONTROLLER_02.c"
 474  0000              _fSegmentDisplay .section 'code'
 474  0000              _fSegmentDisplay proc
 474  0000  00              local _fSegmentDisplay_2 db 1 dup(?)	; 0,1
 477  0001              #line 477 "e:\comp_projects\5_tester_remote_controller\code\v2\tester_remote_controller_02\TESTER_REMOTE_CONTROLLER_02.c"
 477  0000  0700     R  	mov a,_segDigitSelect[0]
 477  0001  0080     R  	mov _fSegmentDisplay_2[0],a
 477  0002  0700     R  	mov a,_fSegmentDisplay_2[0]
 477  0003  0A00        	sub a,0
 477  0004  3D0A        	sz z
 477  0005  2800     R  	jmp _L49
 477  0006  0A01        	sub a,(1)-(0)
 477  0007  3D0A        	sz z
 477  0008  2800     R  	jmp _L50
 477  0009              #line 477 "e:\comp_projects\5_tester_remote_controller\code\v2\tester_remote_controller_02\TESTER_REMOTE_CONTROLLER_02.c"
 477  0009  0700     R  	mov a,_fSegmentDisplay_2[0]
 477  000A  0A02        	sub a,2
 477  000B  3D0A        	sz z
 477  000C  2800     R  	jmp _L51
 477  000D  0A01        	sub a,(3)-(2)
 477  000E  3D0A        	sz z
 477  000F  2800     R  	jmp _L52
 477  0010  0700     R  	mov a,_fSegmentDisplay_2[0]
 477  0011  0A04        	sub a,4
 477  0012  3D0A        	sz z
 477  0013  2800     R  	jmp _L53
 477  0014  0700     R  	mov a,_fSegmentDisplay_2[0]
 477  0015  0A05        	sub a,5
"File: TESTER_REMOTE_CONTROLLER_02.c  Assembler  Version HGASM0202      Page 15

 477  0016  390A        	snz z
 477  0017  2800     R  	jmp _L47
 555  0018              #line 555 "e:\comp_projects\5_tester_remote_controller\code\v2\tester_remote_controller_02\TESTER_REMOTE_CONTROLLER_02.c"
 555  0018  0700     R  	mov a,_segDisplayNumPreparing[0]
 555  0019  0080     E  	mov rd,a
 555  001A  0700     R  	mov a,_segDisplayNumPreparing[1]
 555  001B  0080     E  	mov re,a
 555  001C  0700     R  	mov a,_segDisplayNumPreparing[2]
 555  001D  0080     E  	mov rf,a
 555  001E  0700     R  	mov a,_segDisplayNumPreparing[3]
 555  001F  0080     E  	mov rg,a
 555  0020  0700     E  	mov a,rd
 555  0021  0080     R  	mov _segDigitDisplayNum[0],a
 556  0022              #line 556 "e:\comp_projects\5_tester_remote_controller\code\v2\tester_remote_controller_02\TESTER_REMOTE_CONTROLLER_02.c"
 556  0022  3024        	set [36].0
 557  0023              #line 557 "e:\comp_projects\5_tester_remote_controller\code\v2\tester_remote_controller_02\TESTER_REMOTE_CONTROLLER_02.c"
 557  0023  30A4        	set [36].1
 558  0024              #line 558 "e:\comp_projects\5_tester_remote_controller\code\v2\tester_remote_controller_02\TESTER_REMOTE_CONTROLLER_02.c"
 558  0024  3124        	set [36].2
 559  0025              #line 559 "e:\comp_projects\5_tester_remote_controller\code\v2\tester_remote_controller_02\TESTER_REMOTE_CONTROLLER_02.c"
 559  0025  31A4        	set [36].3
 560  0026              #line 560 "e:\comp_projects\5_tester_remote_controller\code\v2\tester_remote_controller_02\TESTER_REMOTE_CONTROLLER_02.c"
 560  0026  3018        	set [24].0
 561  0027              #line 561 "e:\comp_projects\5_tester_remote_controller\code\v2\tester_remote_controller_02\TESTER_REMOTE_CONTROLLER_02.c"
 561  0027  0F00     R  	mov a,low offset _tblSegmentNumberSelect
 561  0028  0300     R  	add a,_segDigitDisplayNum[0]
 561  0029  0083        	mov mp,a
 561  002A  0F00     R  	mov a,high offset _tblSegmentNumberSelect
 561  002B  1F04        	clr sbp
 561  002C  1384        	adcm a,sbp
 561  002D  2000     E  	call _Crom2Prom
 561  002E  0094        	mov [20],a
 562  002F              #line 562 "e:\comp_projects\5_tester_remote_controller\code\v2\tester_remote_controller_02\TESTER_REMOTE_CONTROLLER_02.c"
 562  002F  3498        	clr [24].1
 563  0030              #line 563 "e:\comp_projects\5_tester_remote_controller\code\v2\tester_remote_controller_02\TESTER_REMOTE_CONTROLLER_02.c"
 563  0030  1F00     R  	clr _segDigitSelect[0]
 564  0031              #line 564 "e:\comp_projects\5_tester_remote_controller\code\v2\tester_remote_controller_02\TESTER_REMOTE_CONTROLLER_02.c"
 564  0031  2800     R  	jmp _L47
 564  0032              _L49:
 479  0032              #line 479 "e:\comp_projects\5_tester_remote_controller\code\v2\tester_remote_controller_02\TESTER_REMOTE_CONTROLLER_02.c"
 479  0032  1F00     R  	clr _segDigitDisplayNum[0]
 480  0033              #line 480 "e:\comp_projects\5_tester_remote_controller\code\v2\tester_remote_controller_02\TESTER_REMOTE_CONTROLLER_02.c"
 480  0033  0700     R  	mov a,_segmentDisplayNumber[0]
 480  0034  0080     E  	mov ra,a
 480  0035  0700     R  	mov a,_segmentDisplayNumber[1]
 480  0036  0080     E  	mov rb,a
 480  0037  0700     R  	mov a,_segmentDisplayNumber[2]
 480  0038  0080     E  	mov rc,a
 480  0039  0700     R  	mov a,_segmentDisplayNumber[3]
 480  003A  0080     E  	mov rd,a
 480  003B  0F05        	mov a,5
 480  003C              _LI3:
 480  003C  340A        	clr c
 480  003D  1B80     E  	rrc rd
 480  003E  1B80     E  	rrc rc
 480  003F  1B80     E  	rrc rb
 480  0040  1B80     E  	rrc ra
 480  0041  1785        	sdz acc
 480  0042  2800     R  	jmp _LI3
 480  0043  0700     E  	mov a,ra
"File: TESTER_REMOTE_CONTROLLER_02.c  Assembler  Version HGASM0202      Page 16

 480  0044  0080     R  	mov _segDisplayNumPreparing[0],a
 480  0045  0700     E  	mov a,rb
 480  0046  0080     R  	mov _segDisplayNumPreparing[1],a
 480  0047  0700     E  	mov a,rc
 480  0048  0080     R  	mov _segDisplayNumPreparing[2],a
 480  0049  0700     E  	mov a,rd
 480  004A  0080     R  	mov _segDisplayNumPreparing[3],a
 480  004B              _L55:
 481  004B              #line 481 "e:\comp_projects\5_tester_remote_controller\code\v2\tester_remote_controller_02\TESTER_REMOTE_CONTROLLER_02.c"
 481  004B  0F9F        	mov a,159
 481  004C  0200     R  	sub a,_segDisplayNumPreparing[0]
 481  004D  0F86        	mov a,134
 481  004E  1200     R  	sbc a,_segDisplayNumPreparing[1]
 481  004F  0F01        	mov a,1
 481  0050  1200     R  	sbc a,_segDisplayNumPreparing[2]
 481  0051  0F00        	mov a,0
 481  0052  1200     R  	sbc a,_segDisplayNumPreparing[3]
 481  0053  3C0A        	sz c
 481  0054  2800     R  	jmp _L65
 482  0055              #line 482 "e:\comp_projects\5_tester_remote_controller\code\v2\tester_remote_controller_02\TESTER_REMOTE_CONTROLLER_02.c"
 482  0055  0F60        	mov a,96
 482  0056  0380     R  	addm a,_segDisplayNumPreparing[0]
 482  0057  0F79        	mov a,121
 482  0058  1380     R  	adcm a,_segDisplayNumPreparing[1]
 482  0059  0FFE        	mov a,254
 482  005A  1380     R  	adcm a,_segDisplayNumPreparing[2]
 482  005B  0FFF        	mov a,255
 482  005C  1380     R  	adcm a,_segDisplayNumPreparing[3]
 483  005D              #line 483 "e:\comp_projects\5_tester_remote_controller\code\v2\tester_remote_controller_02\TESTER_REMOTE_CONTROLLER_02.c"
 483  005D  1480     R  	inc _segDigitDisplayNum[0]
 483  005E  2800     R  	jmp _L55
 483  005F              _L65:
 485  005F              #line 485 "e:\comp_projects\5_tester_remote_controller\code\v2\tester_remote_controller_02\TESTER_REMOTE_CONTROLLER_02.c"
 485  005F  31A4        	set [36].3
 486  0060              #line 486 "e:\comp_projects\5_tester_remote_controller\code\v2\tester_remote_controller_02\TESTER_REMOTE_CONTROLLER_02.c"
 486  0060  3124        	set [36].2
 487  0061              #line 487 "e:\comp_projects\5_tester_remote_controller\code\v2\tester_remote_controller_02\TESTER_REMOTE_CONTROLLER_02.c"
 487  0061  30A4        	set [36].1
 488  0062              #line 488 "e:\comp_projects\5_tester_remote_controller\code\v2\tester_remote_controller_02\TESTER_REMOTE_CONTROLLER_02.c"
 488  0062  3018        	set [24].0
 489  0063              #line 489 "e:\comp_projects\5_tester_remote_controller\code\v2\tester_remote_controller_02\TESTER_REMOTE_CONTROLLER_02.c"
 489  0063  3098        	set [24].1
 490  0064              #line 490 "e:\comp_projects\5_tester_remote_controller\code\v2\tester_remote_controller_02\TESTER_REMOTE_CONTROLLER_02.c"
 490  0064  0F00     R  	mov a,low offset _tblSegmentNumberSelect
 490  0065  0300     R  	add a,_segDigitDisplayNum[0]
 490  0066  0083        	mov mp,a
 490  0067  0F00     R  	mov a,high offset _tblSegmentNumberSelect
 490  0068  1F04        	clr sbp
 490  0069  1384        	adcm a,sbp
 490  006A  2000     E  	call _Crom2Prom
 490  006B  0094        	mov [20],a
 491  006C              #line 491 "e:\comp_projects\5_tester_remote_controller\code\v2\tester_remote_controller_02\TESTER_REMOTE_CONTROLLER_02.c"
 491  006C  3424        	clr [36].0
 492  006D              #line 492 "e:\comp_projects\5_tester_remote_controller\code\v2\tester_remote_controller_02\TESTER_REMOTE_CONTROLLER_02.c"
 492  006D  0F01        	mov a,1
 492  006E  0080     R  	mov _segDigitSelect[0],a
 493  006F              #line 493 "e:\comp_projects\5_tester_remote_controller\code\v2\tester_remote_controller_02\TESTER_REMOTE_CONTROLLER_02.c"
 493  006F  2800     R  	jmp _L47
 493  0070              _L50:
 495  0070              #line 495 "e:\comp_projects\5_tester_remote_controller\code\v2\tester_remote_controller_02\TESTER_REMOTE_CONTROLLER_02.c"
"File: TESTER_REMOTE_CONTROLLER_02.c  Assembler  Version HGASM0202      Page 17

 495  0070  1F00     R  	clr _segDigitDisplayNum[0]
 495  0071              _L57:
 496  0071              #line 496 "e:\comp_projects\5_tester_remote_controller\code\v2\tester_remote_controller_02\TESTER_REMOTE_CONTROLLER_02.c"
 496  0071  0F0F        	mov a,15
 496  0072  0200     R  	sub a,_segDisplayNumPreparing[0]
 496  0073  0F27        	mov a,39
 496  0074  1200     R  	sbc a,_segDisplayNumPreparing[1]
 496  0075  0F00        	mov a,0
 496  0076  1200     R  	sbc a,_segDisplayNumPreparing[2]
 496  0077  0F00        	mov a,0
 496  0078  1200     R  	sbc a,_segDisplayNumPreparing[3]
 496  0079  3C0A        	sz c
 496  007A  2800     R  	jmp _L66
 497  007B              #line 497 "e:\comp_projects\5_tester_remote_controller\code\v2\tester_remote_controller_02\TESTER_REMOTE_CONTROLLER_02.c"
 497  007B  0FF0        	mov a,240
 497  007C  0380     R  	addm a,_segDisplayNumPreparing[0]
 497  007D  0FD8        	mov a,216
 497  007E  1380     R  	adcm a,_segDisplayNumPreparing[1]
 497  007F  0FFF        	mov a,255
 497  0080  1380     R  	adcm a,_segDisplayNumPreparing[2]
 497  0081  1380     R  	adcm a,_segDisplayNumPreparing[3]
 498  0082              #line 498 "e:\comp_projects\5_tester_remote_controller\code\v2\tester_remote_controller_02\TESTER_REMOTE_CONTROLLER_02.c"
 498  0082  1480     R  	inc _segDigitDisplayNum[0]
 498  0083  2800     R  	jmp _L57
 498  0084              _L66:
 500  0084              #line 500 "e:\comp_projects\5_tester_remote_controller\code\v2\tester_remote_controller_02\TESTER_REMOTE_CONTROLLER_02.c"
 500  0084  31A4        	set [36].3
 501  0085              #line 501 "e:\comp_projects\5_tester_remote_controller\code\v2\tester_remote_controller_02\TESTER_REMOTE_CONTROLLER_02.c"
 501  0085  3124        	set [36].2
 502  0086              #line 502 "e:\comp_projects\5_tester_remote_controller\code\v2\tester_remote_controller_02\TESTER_REMOTE_CONTROLLER_02.c"
 502  0086  3024        	set [36].0
 503  0087              #line 503 "e:\comp_projects\5_tester_remote_controller\code\v2\tester_remote_controller_02\TESTER_REMOTE_CONTROLLER_02.c"
 503  0087  3018        	set [24].0
 504  0088              #line 504 "e:\comp_projects\5_tester_remote_controller\code\v2\tester_remote_controller_02\TESTER_REMOTE_CONTROLLER_02.c"
 504  0088  3098        	set [24].1
 505  0089              #line 505 "e:\comp_projects\5_tester_remote_controller\code\v2\tester_remote_controller_02\TESTER_REMOTE_CONTROLLER_02.c"
 505  0089  0F00     R  	mov a,low offset _tblSegmentNumberSelect
 505  008A  0300     R  	add a,_segDigitDisplayNum[0]
 505  008B  0083        	mov mp,a
 505  008C  0F00     R  	mov a,high offset _tblSegmentNumberSelect
 505  008D  1F04        	clr sbp
 505  008E  1384        	adcm a,sbp
 505  008F  2000     E  	call _Crom2Prom
 505  0090  0094        	mov [20],a
 506  0091              #line 506 "e:\comp_projects\5_tester_remote_controller\code\v2\tester_remote_controller_02\TESTER_REMOTE_CONTROLLER_02.c"
 506  0091  34A4        	clr [36].1
 507  0092              #line 507 "e:\comp_projects\5_tester_remote_controller\code\v2\tester_remote_controller_02\TESTER_REMOTE_CONTROLLER_02.c"
 507  0092  0F02        	mov a,2
 507  0093  0080     R  	mov _segDigitSelect[0],a
 508  0094              #line 508 "e:\comp_projects\5_tester_remote_controller\code\v2\tester_remote_controller_02\TESTER_REMOTE_CONTROLLER_02.c"
 508  0094  2800     R  	jmp _L47
 508  0095              _L51:
 510  0095              #line 510 "e:\comp_projects\5_tester_remote_controller\code\v2\tester_remote_controller_02\TESTER_REMOTE_CONTROLLER_02.c"
 510  0095  1F00     R  	clr _segDigitDisplayNum[0]
 510  0096              _L59:
 511  0096              #line 511 "e:\comp_projects\5_tester_remote_controller\code\v2\tester_remote_controller_02\TESTER_REMOTE_CONTROLLER_02.c"
 511  0096  0FE7        	mov a,231
 511  0097  0200     R  	sub a,_segDisplayNumPreparing[0]
 511  0098  0F03        	mov a,3
 511  0099  1200     R  	sbc a,_segDisplayNumPreparing[1]
"File: TESTER_REMOTE_CONTROLLER_02.c  Assembler  Version HGASM0202      Page 18

 511  009A  0F00        	mov a,0
 511  009B  1200     R  	sbc a,_segDisplayNumPreparing[2]
 511  009C  0F00        	mov a,0
 511  009D  1200     R  	sbc a,_segDisplayNumPreparing[3]
 511  009E  3C0A        	sz c
 511  009F  2800     R  	jmp _L67
 512  00A0              #line 512 "e:\comp_projects\5_tester_remote_controller\code\v2\tester_remote_controller_02\TESTER_REMOTE_CONTROLLER_02.c"
 512  00A0  0F18        	mov a,24
 512  00A1  0380     R  	addm a,_segDisplayNumPreparing[0]
 512  00A2  0FFC        	mov a,252
 512  00A3  1380     R  	adcm a,_segDisplayNumPreparing[1]
 512  00A4  0FFF        	mov a,255
 512  00A5  1380     R  	adcm a,_segDisplayNumPreparing[2]
 512  00A6  1380     R  	adcm a,_segDisplayNumPreparing[3]
 513  00A7              #line 513 "e:\comp_projects\5_tester_remote_controller\code\v2\tester_remote_controller_02\TESTER_REMOTE_CONTROLLER_02.c"
 513  00A7  1480     R  	inc _segDigitDisplayNum[0]
 513  00A8  2800     R  	jmp _L59
 513  00A9              _L67:
 515  00A9              #line 515 "e:\comp_projects\5_tester_remote_controller\code\v2\tester_remote_controller_02\TESTER_REMOTE_CONTROLLER_02.c"
 515  00A9  3024        	set [36].0
 516  00AA              #line 516 "e:\comp_projects\5_tester_remote_controller\code\v2\tester_remote_controller_02\TESTER_REMOTE_CONTROLLER_02.c"
 516  00AA  30A4        	set [36].1
 517  00AB              #line 517 "e:\comp_projects\5_tester_remote_controller\code\v2\tester_remote_controller_02\TESTER_REMOTE_CONTROLLER_02.c"
 517  00AB  31A4        	set [36].3
 518  00AC              #line 518 "e:\comp_projects\5_tester_remote_controller\code\v2\tester_remote_controller_02\TESTER_REMOTE_CONTROLLER_02.c"
 518  00AC  3018        	set [24].0
 519  00AD              #line 519 "e:\comp_projects\5_tester_remote_controller\code\v2\tester_remote_controller_02\TESTER_REMOTE_CONTROLLER_02.c"
 519  00AD  3098        	set [24].1
 520  00AE              #line 520 "e:\comp_projects\5_tester_remote_controller\code\v2\tester_remote_controller_02\TESTER_REMOTE_CONTROLLER_02.c"
 520  00AE  0F00     R  	mov a,low offset _tblSegmentNumberSelect
 520  00AF  0300     R  	add a,_segDigitDisplayNum[0]
 520  00B0  0083        	mov mp,a
 520  00B1  0F00     R  	mov a,high offset _tblSegmentNumberSelect
 520  00B2  1F04        	clr sbp
 520  00B3  1384        	adcm a,sbp
 520  00B4  2000     E  	call _Crom2Prom
 520  00B5  0094        	mov [20],a
 521  00B6              #line 521 "e:\comp_projects\5_tester_remote_controller\code\v2\tester_remote_controller_02\TESTER_REMOTE_CONTROLLER_02.c"
 521  00B6  3524        	clr [36].2
 522  00B7              #line 522 "e:\comp_projects\5_tester_remote_controller\code\v2\tester_remote_controller_02\TESTER_REMOTE_CONTROLLER_02.c"
 522  00B7  0F03        	mov a,3
 522  00B8  0080     R  	mov _segDigitSelect[0],a
 523  00B9              #line 523 "e:\comp_projects\5_tester_remote_controller\code\v2\tester_remote_controller_02\TESTER_REMOTE_CONTROLLER_02.c"
 523  00B9  2800     R  	jmp _L47
 523  00BA              _L52:
 525  00BA              #line 525 "e:\comp_projects\5_tester_remote_controller\code\v2\tester_remote_controller_02\TESTER_REMOTE_CONTROLLER_02.c"
 525  00BA  1F00     R  	clr _segDigitDisplayNum[0]
 525  00BB              _L61:
 526  00BB              #line 526 "e:\comp_projects\5_tester_remote_controller\code\v2\tester_remote_controller_02\TESTER_REMOTE_CONTROLLER_02.c"
 526  00BB  0F63        	mov a,99
 526  00BC  0200     R  	sub a,_segDisplayNumPreparing[0]
 526  00BD  0F00        	mov a,0
 526  00BE  1200     R  	sbc a,_segDisplayNumPreparing[1]
 526  00BF  0F00        	mov a,0
 526  00C0  1200     R  	sbc a,_segDisplayNumPreparing[2]
 526  00C1  0F00        	mov a,0
 526  00C2  1200     R  	sbc a,_segDisplayNumPreparing[3]
 526  00C3  3C0A        	sz c
 526  00C4  2800     R  	jmp _L68
 527  00C5              #line 527 "e:\comp_projects\5_tester_remote_controller\code\v2\tester_remote_controller_02\TESTER_REMOTE_CONTROLLER_02.c"
"File: TESTER_REMOTE_CONTROLLER_02.c  Assembler  Version HGASM0202      Page 19

 527  00C5  0F9C        	mov a,156
 527  00C6  0380     R  	addm a,_segDisplayNumPreparing[0]
 527  00C7  0FFF        	mov a,255
 527  00C8  1380     R  	adcm a,_segDisplayNumPreparing[1]
 527  00C9  1380     R  	adcm a,_segDisplayNumPreparing[2]
 527  00CA  1380     R  	adcm a,_segDisplayNumPreparing[3]
 528  00CB              #line 528 "e:\comp_projects\5_tester_remote_controller\code\v2\tester_remote_controller_02\TESTER_REMOTE_CONTROLLER_02.c"
 528  00CB  1480     R  	inc _segDigitDisplayNum[0]
 528  00CC  2800     R  	jmp _L61
 528  00CD              _L68:
 530  00CD              #line 530 "e:\comp_projects\5_tester_remote_controller\code\v2\tester_remote_controller_02\TESTER_REMOTE_CONTROLLER_02.c"
 530  00CD  3024        	set [36].0
 531  00CE              #line 531 "e:\comp_projects\5_tester_remote_controller\code\v2\tester_remote_controller_02\TESTER_REMOTE_CONTROLLER_02.c"
 531  00CE  30A4        	set [36].1
 532  00CF              #line 532 "e:\comp_projects\5_tester_remote_controller\code\v2\tester_remote_controller_02\TESTER_REMOTE_CONTROLLER_02.c"
 532  00CF  3124        	set [36].2
 533  00D0              #line 533 "e:\comp_projects\5_tester_remote_controller\code\v2\tester_remote_controller_02\TESTER_REMOTE_CONTROLLER_02.c"
 533  00D0  3018        	set [24].0
 534  00D1              #line 534 "e:\comp_projects\5_tester_remote_controller\code\v2\tester_remote_controller_02\TESTER_REMOTE_CONTROLLER_02.c"
 534  00D1  3098        	set [24].1
 535  00D2              #line 535 "e:\comp_projects\5_tester_remote_controller\code\v2\tester_remote_controller_02\TESTER_REMOTE_CONTROLLER_02.c"
 535  00D2  0F00     R  	mov a,low offset _tblSegmentNumberSelect
 535  00D3  0300     R  	add a,_segDigitDisplayNum[0]
 535  00D4  0083        	mov mp,a
 535  00D5  0F00     R  	mov a,high offset _tblSegmentNumberSelect
 535  00D6  1F04        	clr sbp
 535  00D7  1384        	adcm a,sbp
 535  00D8  2000     E  	call _Crom2Prom
 535  00D9  0094        	mov [20],a
 536  00DA              #line 536 "e:\comp_projects\5_tester_remote_controller\code\v2\tester_remote_controller_02\TESTER_REMOTE_CONTROLLER_02.c"
 536  00DA  35A4        	clr [36].3
 537  00DB              #line 537 "e:\comp_projects\5_tester_remote_controller\code\v2\tester_remote_controller_02\TESTER_REMOTE_CONTROLLER_02.c"
 537  00DB  0F04        	mov a,4
 537  00DC  0080     R  	mov _segDigitSelect[0],a
 538  00DD              #line 538 "e:\comp_projects\5_tester_remote_controller\code\v2\tester_remote_controller_02\TESTER_REMOTE_CONTROLLER_02.c"
 538  00DD  2800     R  	jmp _L47
 538  00DE              _L53:
 540  00DE              #line 540 "e:\comp_projects\5_tester_remote_controller\code\v2\tester_remote_controller_02\TESTER_REMOTE_CONTROLLER_02.c"
 540  00DE  1F00     R  	clr _segDigitDisplayNum[0]
 540  00DF              _L63:
 541  00DF              #line 541 "e:\comp_projects\5_tester_remote_controller\code\v2\tester_remote_controller_02\TESTER_REMOTE_CONTROLLER_02.c"
 541  00DF  0F09        	mov a,9
 541  00E0  0200     R  	sub a,_segDisplayNumPreparing[0]
 541  00E1  0F00        	mov a,0
 541  00E2  1200     R  	sbc a,_segDisplayNumPreparing[1]
 541  00E3  0F00        	mov a,0
 541  00E4  1200     R  	sbc a,_segDisplayNumPreparing[2]
 541  00E5  0F00        	mov a,0
 541  00E6  1200     R  	sbc a,_segDisplayNumPreparing[3]
 541  00E7  3C0A        	sz c
 541  00E8  2800     R  	jmp _L69
 542  00E9              #line 542 "e:\comp_projects\5_tester_remote_controller\code\v2\tester_remote_controller_02\TESTER_REMOTE_CONTROLLER_02.c"
 542  00E9  0FF6        	mov a,246
 542  00EA  0380     R  	addm a,_segDisplayNumPreparing[0]
 542  00EB  0FFF        	mov a,255
 542  00EC  1380     R  	adcm a,_segDisplayNumPreparing[1]
 542  00ED  1380     R  	adcm a,_segDisplayNumPreparing[2]
 542  00EE  1380     R  	adcm a,_segDisplayNumPreparing[3]
 543  00EF              #line 543 "e:\comp_projects\5_tester_remote_controller\code\v2\tester_remote_controller_02\TESTER_REMOTE_CONTROLLER_02.c"
 543  00EF  1480     R  	inc _segDigitDisplayNum[0]
"File: TESTER_REMOTE_CONTROLLER_02.c  Assembler  Version HGASM0202      Page 20

 543  00F0  2800     R  	jmp _L63
 543  00F1              _L69:
 545  00F1              #line 545 "e:\comp_projects\5_tester_remote_controller\code\v2\tester_remote_controller_02\TESTER_REMOTE_CONTROLLER_02.c"
 545  00F1  3024        	set [36].0
 546  00F2              #line 546 "e:\comp_projects\5_tester_remote_controller\code\v2\tester_remote_controller_02\TESTER_REMOTE_CONTROLLER_02.c"
 546  00F2  30A4        	set [36].1
 547  00F3              #line 547 "e:\comp_projects\5_tester_remote_controller\code\v2\tester_remote_controller_02\TESTER_REMOTE_CONTROLLER_02.c"
 547  00F3  3124        	set [36].2
 548  00F4              #line 548 "e:\comp_projects\5_tester_remote_controller\code\v2\tester_remote_controller_02\TESTER_REMOTE_CONTROLLER_02.c"
 548  00F4  31A4        	set [36].3
 549  00F5              #line 549 "e:\comp_projects\5_tester_remote_controller\code\v2\tester_remote_controller_02\TESTER_REMOTE_CONTROLLER_02.c"
 549  00F5  3098        	set [24].1
 550  00F6              #line 550 "e:\comp_projects\5_tester_remote_controller\code\v2\tester_remote_controller_02\TESTER_REMOTE_CONTROLLER_02.c"
 550  00F6  0F00     R  	mov a,low offset _tblSegmentNumberSelect
 550  00F7  0300     R  	add a,_segDigitDisplayNum[0]
 550  00F8  0083        	mov mp,a
 550  00F9  0F00     R  	mov a,high offset _tblSegmentNumberSelect
 550  00FA  1F04        	clr sbp
 550  00FB  1384        	adcm a,sbp
 550  00FC  2000     E  	call _Crom2Prom
 550  00FD  0094        	mov [20],a
 551  00FE              #line 551 "e:\comp_projects\5_tester_remote_controller\code\v2\tester_remote_controller_02\TESTER_REMOTE_CONTROLLER_02.c"
 551  00FE  3418        	clr [24].0
 552  00FF              #line 552 "e:\comp_projects\5_tester_remote_controller\code\v2\tester_remote_controller_02\TESTER_REMOTE_CONTROLLER_02.c"
 552  00FF  0F05        	mov a,5
 552  0100  0080     R  	mov _segDigitSelect[0],a
 552  0101              _L47:
 552  0101  0003        	ret
 552  0102              _fSegmentDisplay endp
 552  0102              #line 552 "e:\comp_projects\5_tester_remote_controller\code\v2\tester_remote_controller_02\TESTER_REMOTE_CONTROLLER_02.c"
 552  0102              #pragma debug scope 1 1
 552  0102              public _main
 552  0102              #pragma debug scope 14 1
 121  0102              #line 121 "e:\comp_projects\5_tester_remote_controller\code\v2\tester_remote_controller_02\TESTER_REMOTE_CONTROLLER_02.c"
 121  0102              IFDEF WITH_DEFAULT_STARTUP
 121  0102              extern _main_initial0:near
 121  0102              extern _main_startup:near
 121  0102              ENDIF
 121  0102              
 121  0102              ROMBANK 0 @start
 121  0000              @start .section com_l 'code'
 121  0000              _main_startup1:
 121  0000              @start .section com_e 'code'
 121  0000  2800     R  	jmp _main
 121  0001              
 121  0000              _main .section 'code'
 121  0000              _main proc
 122  0000              #line 122 "e:\comp_projects\5_tester_remote_controller\code\v2\tester_remote_controller_02\TESTER_REMOTE_CONTROLLER_02.c"
 122  0000  2000     R  	call _initializeHardware
 123  0001              #line 123 "e:\comp_projects\5_tester_remote_controller\code\v2\tester_remote_controller_02\TESTER_REMOTE_CONTROLLER_02.c"
 123  0001  2000     R  	call _initializeSoftware
 126  0002              #line 126 "e:\comp_projects\5_tester_remote_controller\code\v2\tester_remote_controller_02\TESTER_REMOTE_CONTROLLER_02.c"
 126  0002  3010        	set [16].0
 126  0003              _L78:
 131  0003              #line 131 "e:\comp_projects\5_tester_remote_controller\code\v2\tester_remote_controller_02\TESTER_REMOTE_CONTROLLER_02.c"
 131  0003              ;# 131 "e:\comp_projects\5_tester_remote_controller\code\v2\tester_remote_controller_02\TESTER_REMOTE_CONTROLLER_02.c" 1
 131  0003  0001        	clr wdt
 133  0004              #line 133 "e:\comp_projects\5_tester_remote_controller\code\v2\tester_remote_controller_02\TESTER_REMOTE_CONTROLLER_02.c"
 133  0004  3800     R  	snz _rTaskflag[0].0
 133  0005  2800     R  	jmp _L71
"File: TESTER_REMOTE_CONTROLLER_02.c  Assembler  Version HGASM0202      Page 21

 135  0006              #line 135 "e:\comp_projects\5_tester_remote_controller\code\v2\tester_remote_controller_02\TESTER_REMOTE_CONTROLLER_02.c"
 135  0006  2000     R  	call _runCountTask
 137  0007              #line 137 "e:\comp_projects\5_tester_remote_controller\code\v2\tester_remote_controller_02\TESTER_REMOTE_CONTROLLER_02.c"
 137  0007  3400     R  	clr _rTaskflag[0].0
 137  0008              _L71:
 140  0008              #line 140 "e:\comp_projects\5_tester_remote_controller\code\v2\tester_remote_controller_02\TESTER_REMOTE_CONTROLLER_02.c"
 140  0008  3800     R  	snz _rTaskflag[0].2
 140  0009  2800     R  	jmp _L72
 142  000A              #line 142 "e:\comp_projects\5_tester_remote_controller\code\v2\tester_remote_controller_02\TESTER_REMOTE_CONTROLLER_02.c"
 142  000A  2000     R  	call _fSegmentDisplay
 144  000B              #line 144 "e:\comp_projects\5_tester_remote_controller\code\v2\tester_remote_controller_02\TESTER_REMOTE_CONTROLLER_02.c"
 144  000B  3400     R  	clr _rTaskflag[0].2
 144  000C              _L72:
 147  000C              #line 147 "e:\comp_projects\5_tester_remote_controller\code\v2\tester_remote_controller_02\TESTER_REMOTE_CONTROLLER_02.c"
 147  000C  3800     R  	snz _rTaskflag[0].4
 147  000D  2800     R  	jmp _L73
 151  000E              #line 151 "e:\comp_projects\5_tester_remote_controller\code\v2\tester_remote_controller_02\TESTER_REMOTE_CONTROLLER_02.c"
 151  000E  3400     R  	clr _rTaskflag[0].4
 151  000F              _L73:
 154  000F              #line 154 "e:\comp_projects\5_tester_remote_controller\code\v2\tester_remote_controller_02\TESTER_REMOTE_CONTROLLER_02.c"
 154  000F  3800     R  	snz _rTaskflag1[0].0
 154  0010  2800     R  	jmp _L74
 156  0011              #line 156 "e:\comp_projects\5_tester_remote_controller\code\v2\tester_remote_controller_02\TESTER_REMOTE_CONTROLLER_02.c"
 156  0011  2000     R  	call _stepperUp
 158  0012              #line 158 "e:\comp_projects\5_tester_remote_controller\code\v2\tester_remote_controller_02\TESTER_REMOTE_CONTROLLER_02.c"
 158  0012  3400     R  	clr _rTaskflag1[0].0
 158  0013              _L74:
 161  0013              #line 161 "e:\comp_projects\5_tester_remote_controller\code\v2\tester_remote_controller_02\TESTER_REMOTE_CONTROLLER_02.c"
 161  0013  3800     R  	snz _rTaskflag1[0].1
 161  0014  2800     R  	jmp _L75
 163  0015              #line 163 "e:\comp_projects\5_tester_remote_controller\code\v2\tester_remote_controller_02\TESTER_REMOTE_CONTROLLER_02.c"
 163  0015  2000     R  	call _stepperDown
 165  0016              #line 165 "e:\comp_projects\5_tester_remote_controller\code\v2\tester_remote_controller_02\TESTER_REMOTE_CONTROLLER_02.c"
 165  0016  3400     R  	clr _rTaskflag1[0].1
 165  0017              _L75:
 169  0017              #line 169 "e:\comp_projects\5_tester_remote_controller\code\v2\tester_remote_controller_02\TESTER_REMOTE_CONTROLLER_02.c"
 169  0017  3000     R  	set _rTaskflag[0].1
 169  0018              _L76:
 170  0018              #line 170 "e:\comp_projects\5_tester_remote_controller\code\v2\tester_remote_controller_02\TESTER_REMOTE_CONTROLLER_02.c"
 170  0018  3800     R  	snz _rTaskflag[0].1
 170  0019  2800     R  	jmp _L78
 172  001A              #line 172 "e:\comp_projects\5_tester_remote_controller\code\v2\tester_remote_controller_02\TESTER_REMOTE_CONTROLLER_02.c"
 172  001A              ;# 172 "e:\comp_projects\5_tester_remote_controller\code\v2\tester_remote_controller_02\TESTER_REMOTE_CONTROLLER_02.c" 1
 172  001A  0000        	NOP
 173  001B              #line 173 "e:\comp_projects\5_tester_remote_controller\code\v2\tester_remote_controller_02\TESTER_REMOTE_CONTROLLER_02.c"
 173  001B              ;# 173 "e:\comp_projects\5_tester_remote_controller\code\v2\tester_remote_controller_02\TESTER_REMOTE_CONTROLLER_02.c" 1
 173  001B  0000        	NOP
 174  001C              #line 174 "e:\comp_projects\5_tester_remote_controller\code\v2\tester_remote_controller_02\TESTER_REMOTE_CONTROLLER_02.c"
 174  001C              ;# 174 "e:\comp_projects\5_tester_remote_controller\code\v2\tester_remote_controller_02\TESTER_REMOTE_CONTROLLER_02.c" 1
 174  001C  0000        	NOP
 175  001D              #line 175 "e:\comp_projects\5_tester_remote_controller\code\v2\tester_remote_controller_02\TESTER_REMOTE_CONTROLLER_02.c"
 175  001D              ;# 175 "e:\comp_projects\5_tester_remote_controller\code\v2\tester_remote_controller_02\TESTER_REMOTE_CONTROLLER_02.c" 1
 175  001D  0000        	NOP
 176  001E              #line 176 "e:\comp_projects\5_tester_remote_controller\code\v2\tester_remote_controller_02\TESTER_REMOTE_CONTROLLER_02.c"
 176  001E              ;# 176 "e:\comp_projects\5_tester_remote_controller\code\v2\tester_remote_controller_02\TESTER_REMOTE_CONTROLLER_02.c" 1
 176  001E  0000        	NOP
 177  001F              #line 177 "e:\comp_projects\5_tester_remote_controller\code\v2\tester_remote_controller_02\TESTER_REMOTE_CONTROLLER_02.c"
 177  001F              ;# 177 "e:\comp_projects\5_tester_remote_controller\code\v2\tester_remote_controller_02\TESTER_REMOTE_CONTROLLER_02.c" 1
 177  001F  0000        	NOP
 178  0020              #line 178 "e:\comp_projects\5_tester_remote_controller\code\v2\tester_remote_controller_02\TESTER_REMOTE_CONTROLLER_02.c"
"File: TESTER_REMOTE_CONTROLLER_02.c  Assembler  Version HGASM0202      Page 22

 178  0020              ;# 178 "e:\comp_projects\5_tester_remote_controller\code\v2\tester_remote_controller_02\TESTER_REMOTE_CONTROLLER_02.c" 1
 178  0020  0000        	NOP
 179  0021              #line 179 "e:\comp_projects\5_tester_remote_controller\code\v2\tester_remote_controller_02\TESTER_REMOTE_CONTROLLER_02.c"
 179  0021              ;# 179 "e:\comp_projects\5_tester_remote_controller\code\v2\tester_remote_controller_02\TESTER_REMOTE_CONTROLLER_02.c" 1
 179  0021  0000        	NOP
 180  0022              #line 180 "e:\comp_projects\5_tester_remote_controller\code\v2\tester_remote_controller_02\TESTER_REMOTE_CONTROLLER_02.c"
 180  0022              ;# 180 "e:\comp_projects\5_tester_remote_controller\code\v2\tester_remote_controller_02\TESTER_REMOTE_CONTROLLER_02.c" 1
 180  0022  0000        	NOP
 180  0023  2800     R  	jmp _L76
 180  0024  2800     R  	jmp $
 180  0025              _main endp
 180  0025              
 180  0025              @dummy endp
 180  0025              
 180  0025              #line 180 "e:\comp_projects\5_tester_remote_controller\code\v2\tester_remote_controller_02\TESTER_REMOTE_CONTROLLER_02.c"
 180  0025              #pragma debug scope 1 1
 180  0025              public _tblSegmentNumberSelect
 180  0000              @crom	.section 'crom'
  89  0000              #line 89 "e:\comp_projects\5_tester_remote_controller\code\v2\tester_remote_controller_02\TESTER_REMOTE_CONTROLLER_02.c"
  89  0000              @crom	.section	'crom'
  89  0000              _tblSegmentNumberSelect:
  89  0000              #pragma debug array 42 8 10 1
  89  0000              #pragma debug array 42 8 10 1
  89  0000              #pragma debug variable 42 1 _tblSegmentNumberSelect "tblSegmentNumberSelect"
  89  0000              	db 63
  89  0001              	db 6
  89  0001              	db 91
  89  0002              	db 79
  89  0002              	db 102
  89  0003              	db 109
  89  0003              	db 125
  89  0004              	db 7
  89  0004              	db 127
  89  0005              	db 111
  85  0005              #line 85 "e:\comp_projects\5_tester_remote_controller\code\v2\tester_remote_controller_02\TESTER_REMOTE_CONTROLLER_02.c"
  85  0005              public _stateStepper
  85  0000              @HCCINIT0_stateStepper .section 'data'
  85  0000              _stateStepper	db 0
  85  0001              #pragma debug variable 8 1 _stateStepper "stateStepper"
  85  0001              
  85  0000              @HCCINIT .section 'data'
  83  0000              #line 83 "e:\comp_projects\5_tester_remote_controller\code\v2\tester_remote_controller_02\TESTER_REMOTE_CONTROLLER_02.c"
  83  0000              public _k
  83  0000              @HCCINIT0_k .section 'data'
  83  0000              _k	db 0
  83  0001              #pragma debug variable 8 1 _k "k"
  83  0001              
  83  0000              @HCCINIT .section 'data'
  81  0000              #line 81 "e:\comp_projects\5_tester_remote_controller\code\v2\tester_remote_controller_02\TESTER_REMOTE_CONTROLLER_02.c"
  81  0000              public _receiveDataBit
  81  0000              @HCCINIT0_receiveDataBit .section 'data'
  81  0000  0030[       _receiveDataBit	db 48 dup(0)
            00
            ]
  81  0030              #pragma debug array 43 11 24 1
  81  0030              #pragma debug array 43 11 24 1
  81  0030              #pragma debug variable 43 1 _receiveDataBit "receiveDataBit"
  81  0030              
  81  0000              @HCCINIT .section 'data'
  79  0000              #line 79 "e:\comp_projects\5_tester_remote_controller\code\v2\tester_remote_controller_02\TESTER_REMOTE_CONTROLLER_02.c"
"File: TESTER_REMOTE_CONTROLLER_02.c  Assembler  Version HGASM0202      Page 23

  79  0000              public _stableInteger
  79  0000              @HCCINIT0_stableInteger .section 'data'
  79  0000              _stableInteger	db 0
  79  0001              #pragma debug variable 8 1 _stableInteger "stableInteger"
  79  0001              
  79  0000              @HCCINIT .section 'data'
  78  0000              #line 78 "e:\comp_projects\5_tester_remote_controller\code\v2\tester_remote_controller_02\TESTER_REMOTE_CONTROLLER_02.c"
  78  0000              public _segmentDisplayNumber
  78  0000              @HCCINIT0_segmentDisplayNumber .section 'data'
  78  0000  0004[       _segmentDisplayNumber	db 4 dup(0)
            00
            ]
  78  0004              #pragma debug variable 14 1 _segmentDisplayNumber "segmentDisplayNumber"
  78  0004              
  78  0000              @HCCINIT .section 'data'
  77  0000              #line 77 "e:\comp_projects\5_tester_remote_controller\code\v2\tester_remote_controller_02\TESTER_REMOTE_CONTROLLER_02.c"
  77  0000              public _receiveDataShifter
  77  0000              @HCCINIT0_receiveDataShifter .section 'data'
  77  0000              _receiveDataShifter	db 0
  77  0001              #pragma debug variable 8 1 _receiveDataShifter "receiveDataShifter"
  77  0001              
  77  0000              @HCCINIT .section 'data'
  76  0000              #line 76 "e:\comp_projects\5_tester_remote_controller\code\v2\tester_remote_controller_02\TESTER_REMOTE_CONTROLLER_02.c"
  76  0000              public _shiftData
  76  0000              @HCCINIT0_shiftData .section 'data'
  76  0000  0004[       _shiftData	db 4 dup(0)
            00
            ]
  76  0004              #pragma debug variable 14 1 _shiftData "shiftData"
  76  0004              
  76  0000              @HCCINIT .section 'data'
  75  0000              #line 75 "e:\comp_projects\5_tester_remote_controller\code\v2\tester_remote_controller_02\TESTER_REMOTE_CONTROLLER_02.c"
  75  0000              public _receiveData
  75  0000              @HCCINIT0_receiveData .section 'data'
  75  0000  0004[       _receiveData	db 4 dup(0)
            00
            ]
  75  0004              #pragma debug variable 14 1 _receiveData "receiveData"
  75  0004              
  75  0000              @HCCINIT .section 'data'
  74  0000              #line 74 "e:\comp_projects\5_tester_remote_controller\code\v2\tester_remote_controller_02\TESTER_REMOTE_CONTROLLER_02.c"
  74  0000              public _dataReceiveHelp
  74  0000              @HCCINIT0_dataReceiveHelp .section 'data'
  74  0000              _dataReceiveHelp	db 0
  74  0001              #pragma debug variable 8 1 _dataReceiveHelp "dataReceiveHelp"
  74  0001              
  74  0000              @HCCINIT .section 'data'
  73  0000              #line 73 "e:\comp_projects\5_tester_remote_controller\code\v2\tester_remote_controller_02\TESTER_REMOTE_CONTROLLER_02.c"
  73  0000              public _segDigitDisplayNum
  73  0000              @HCCINIT0_segDigitDisplayNum .section 'data'
  73  0000              _segDigitDisplayNum	db 0
  73  0001              #pragma debug variable 8 1 _segDigitDisplayNum "segDigitDisplayNum"
  73  0001              
  73  0000              @HCCINIT .section 'data'
  72  0000              #line 72 "e:\comp_projects\5_tester_remote_controller\code\v2\tester_remote_controller_02\TESTER_REMOTE_CONTROLLER_02.c"
  72  0000              public _segDisplayNumPreparing
  72  0000              @HCCINIT0_segDisplayNumPreparing .section 'data'
  72  0000  0004[       _segDisplayNumPreparing	db 4 dup(0)
            00
            ]
"File: TESTER_REMOTE_CONTROLLER_02.c  Assembler  Version HGASM0202      Page 24

  72  0004              #pragma debug variable 14 1 _segDisplayNumPreparing "segDisplayNumPreparing"
  72  0004              
  72  0000              @HCCINIT .section 'data'
  71  0000              #line 71 "e:\comp_projects\5_tester_remote_controller\code\v2\tester_remote_controller_02\TESTER_REMOTE_CONTROLLER_02.c"
  71  0000              public _segDigitSelect
  71  0000              @HCCINIT0_segDigitSelect .section 'data'
  71  0000              _segDigitSelect	db 0
  71  0001              #pragma debug variable 8 1 _segDigitSelect "segDigitSelect"
  71  0001              
  71  0000              @HCCINIT .section 'data'
  69  0000              #line 69 "e:\comp_projects\5_tester_remote_controller\code\v2\tester_remote_controller_02\TESTER_REMOTE_CONTROLLER_02.c"
  69  0000              public _rCountTask
  69  0000              @HCCINIT0_rCountTask .section 'data'
  69  0000  0002[       _rCountTask	db 2 dup(0)
            00
            ]
  69  0002              #pragma debug variable 12 1 _rCountTask "rCountTask"
  69  0002              
  69  0000              @HCCINIT .section 'data'
  67  0000              #line 67 "e:\comp_projects\5_tester_remote_controller\code\v2\tester_remote_controller_02\TESTER_REMOTE_CONTROLLER_02.c"
  67  0000              public _rTaskflag1
  67  0000              @HCCINIT0_rTaskflag1 .section 'data'
  67  0000              _rTaskflag1	db 0
  67  0001              #pragma debug struct_end
  67  0001              #pragma debug struct_end
  67  0001              #pragma debug union_end
  67  0001              #pragma debug union_end
  67  0001              #pragma debug variable 45 1 _rTaskflag1 "rTaskflag1"
  67  0001              
  67  0000              @HCCINIT .section 'data'
  66  0000              #line 66 "e:\comp_projects\5_tester_remote_controller\code\v2\tester_remote_controller_02\TESTER_REMOTE_CONTROLLER_02.c"
  66  0000              public _rTaskflag
  66  0000              @HCCINIT0_rTaskflag .section 'data'
  66  0000              _rTaskflag	db 0
  66  0001              #pragma debug variable 45 1 _rTaskflag "rTaskflag"
  66  0001              
  66  0000              @HCCINIT .section 'data'
  66  0000              #pragma debug struct_end
  66  0000              #pragma debug struct_end
  66  0000              #pragma debug union_end
  66  0000              #pragma debug union_end
  66  0000              #pragma debug variable 47 1 ___intc0 "__intc0" 1
  66  0000              #pragma debug struct_end
  66  0000              #pragma debug struct_end
  66  0000              #pragma debug union_end
  66  0000              #pragma debug union_end
  66  0000              #pragma debug variable 49 1 ___intc1 "__intc1" 1
  66  0000              #pragma debug struct_end
  66  0000              #pragma debug struct_end
  66  0000              #pragma debug union_end
  66  0000              #pragma debug union_end
  66  0000              #pragma debug variable 51 1 ___pa "__pa" 1
  66  0000              #pragma debug struct_end
  66  0000              #pragma debug struct_end
  66  0000              #pragma debug union_end
  66  0000              #pragma debug union_end
  66  0000              #pragma debug variable 53 1 ___pac "__pac" 1
  66  0000              #pragma debug struct_end
  66  0000              #pragma debug struct_end
  66  0000              #pragma debug union_end
"File: TESTER_REMOTE_CONTROLLER_02.c  Assembler  Version HGASM0202      Page 25

  66  0000              #pragma debug union_end
  66  0000              #pragma debug variable 55 1 ___pb "__pb" 1
  66  0000              #pragma debug struct_end
  66  0000              #pragma debug struct_end
  66  0000              #pragma debug union_end
  66  0000              #pragma debug union_end
  66  0000              #pragma debug variable 57 1 ___pbc "__pbc" 1
  66  0000              #pragma debug struct_end
  66  0000              #pragma debug struct_end
  66  0000              #pragma debug union_end
  66  0000              #pragma debug union_end
  66  0000              #pragma debug variable 59 1 ___integ "__integ" 1
  66  0000              #pragma debug struct_end
  66  0000              #pragma debug struct_end
  66  0000              #pragma debug union_end
  66  0000              #pragma debug union_end
  66  0000              #pragma debug variable 61 1 ___scc "__scc" 1
  66  0000              #pragma debug struct_end
  66  0000              #pragma debug struct_end
  66  0000              #pragma debug union_end
  66  0000              #pragma debug union_end
  66  0000              #pragma debug variable 63 1 ___hircc "__hircc" 1
  66  0000              #pragma debug struct_end
  66  0000              #pragma debug struct_end
  66  0000              #pragma debug union_end
  66  0000              #pragma debug union_end
  66  0000              #pragma debug variable 65 1 ___wdtc "__wdtc" 1
  66  0000              #pragma debug struct_end
  66  0000              #pragma debug struct_end
  66  0000              #pragma debug union_end
  66  0000              #pragma debug union_end
  66  0000              #pragma debug variable 67 1 ___pc "__pc" 1
  66  0000              #pragma debug struct_end
  66  0000              #pragma debug struct_end
  66  0000              #pragma debug union_end
  66  0000              #pragma debug union_end
  66  0000              #pragma debug variable 69 1 ___pcc "__pcc" 1
  66  0000              #pragma debug struct_end
  66  0000              #pragma debug struct_end
  66  0000              #pragma debug union_end
  66  0000              #pragma debug union_end
  66  0000              #pragma debug variable 71 1 ___mfi0 "__mfi0" 1
  66  0000              #pragma debug struct_end
  66  0000              #pragma debug struct_end
  66  0000              #pragma debug union_end
  66  0000              #pragma debug union_end
  66  0000              #pragma debug variable 73 1 ___mfi1 "__mfi1" 1
  66  0000              #pragma debug struct_end
  66  0000              #pragma debug struct_end
  66  0000              #pragma debug union_end
  66  0000              #pragma debug union_end
  66  0000              #pragma debug variable 75 1 ___ctm0c0 "__ctm0c0" 1
  66  0000              #pragma debug struct_end
  66  0000              #pragma debug struct_end
  66  0000              #pragma debug union_end
  66  0000              #pragma debug union_end
  66  0000              #pragma debug variable 77 1 ___ctm0c1 "__ctm0c1" 1
  66  0000              #pragma debug variable 8 1 ___ctm0al "__ctm0al" 1
  66  0000              #pragma debug variable 8 1 ___ctm0ah "__ctm0ah" 1
  66  0000              #pragma debug struct_end
"File: TESTER_REMOTE_CONTROLLER_02.c  Assembler  Version HGASM0202      Page 26

  66  0000              #pragma debug struct_end
  66  0000              #pragma debug union_end
  66  0000              #pragma debug union_end
  66  0000              #pragma debug variable 79 1 ___ctm1c0 "__ctm1c0" 1
  66  0000              #pragma debug struct_end
  66  0000              #pragma debug struct_end
  66  0000              #pragma debug union_end
  66  0000              #pragma debug union_end
  66  0000              #pragma debug variable 81 1 ___ctm1c1 "__ctm1c1" 1
  66  0000              #pragma debug variable 8 1 ___ctm1al "__ctm1al" 1
  66  0000              #pragma debug variable 8 1 ___ctm1ah "__ctm1ah" 1
  66  0000              #pragma debug struct_end
  66  0000              #pragma debug struct_end
  66  0000              #pragma debug union_end
  66  0000              #pragma debug union_end
  66  0000              #pragma debug variable 83 1 ___pe "__pe" 1
  66  0000              #pragma debug struct_end
  66  0000              #pragma debug struct_end
  66  0000              #pragma debug union_end
  66  0000              #pragma debug union_end
  66  0000              #pragma debug variable 85 1 ___pec "__pec" 1
  66  0000              extern r1:byte
  66  0000              extern r2:byte
  66  0000              extern r3:byte
  66  0000              extern r4:byte
  66  0000              extern r5:byte
  66  0000              extern r6:byte
 121  0000              #line 121 "e:\comp_projects\5_tester_remote_controller\code\v2\tester_remote_controller_02\TESTER_REMOTE_CONTROLLER_02.c"
 121  0000              @code .section at 0 'code'
 121  0000  2800     R  	jmp _main_startup1
 121  0001              
 121  0001              
 121  0001              ; 
 121  0001              ; Generated by holtek-gcc v3.19, Tue Aug 22 12:24:52 2023
 121  0001              ; Rebuild 718
 121  0001              ; end of file


        0 Errors, 0